

Microchip MPLAB XC8 Assembler V2.10 build 88905656 
                                                                                               Thu Mar 05 21:22:20 2020

Microchip MPLAB XC8 C Compiler v2.10 (Free license) build 20190730164152 Og1 
     1                           	processor	16F877A
     2                           	opt	pw 120
     3                           	opt	flic
     4                           	psect	idataCOMMON,global,class=CODE,delta=2
     5                           	psect	idataBANK1,global,class=CODE,delta=2
     6                           	psect	idataBANK3,global,class=CODE,delta=2
     7                           	psect	strings,global,class=STRING,delta=2
     8                           	psect	cinit,global,class=CODE,merge=1,delta=2
     9                           	psect	bssCOMMON,global,class=COMMON,space=1,delta=1
    10                           	psect	dataCOMMON,global,class=COMMON,space=1,delta=1
    11                           	psect	bssBANK0,global,class=BANK0,space=1,delta=1
    12                           	psect	bssBANK1,global,class=BANK1,space=1,delta=1
    13                           	psect	dataBANK1,global,class=BANK1,space=1,delta=1
    14                           	psect	dataBANK3,global,class=BANK3,space=1,delta=1
    15                           	psect	inittext,global,class=CODE,delta=2
    16                           	psect	cstackBANK1,global,class=BANK1,space=1,delta=1
    17                           	psect	cstackCOMMON,global,class=COMMON,space=1,delta=1
    18                           	psect	cstackBANK0,global,class=BANK0,space=1,delta=1
    19                           	psect	maintext,global,class=CODE,split=1,delta=2
    20                           	psect	text1,local,class=CODE,merge=1,delta=2,group=1
    21                           	psect	text2,local,class=CODE,merge=1,delta=2
    22                           	psect	text3,local,class=CODE,merge=1,delta=2
    23                           	psect	text4,local,class=CODE,merge=1,delta=2
    24                           	psect	text5,local,class=CODE,merge=1,delta=2
    25                           	psect	text6,local,class=CODE,merge=1,delta=2
    26                           	psect	text7,local,class=CODE,merge=1,delta=2
    27                           	psect	text8,local,class=CODE,merge=1,delta=2
    28                           	psect	text9,local,class=CODE,merge=1,delta=2
    29                           	psect	text10,local,class=CODE,merge=1,delta=2
    30                           	psect	text11,local,class=CODE,merge=1,delta=2
    31                           	psect	text12,local,class=CODE,merge=1,delta=2
    32                           	psect	text13,local,class=CODE,merge=1,delta=2
    33                           	psect	text14,local,class=CODE,merge=1,delta=2
    34                           	psect	text15,local,class=CODE,merge=1,delta=2
    35                           	psect	text16,local,class=CODE,merge=1,delta=2
    36                           	psect	text17,local,class=CODE,merge=1,delta=2
    37                           	psect	text18,local,class=CODE,merge=1,delta=2
    38                           	psect	text19,local,class=CODE,merge=1,delta=2
    39                           	psect	text20,local,class=CODE,merge=1,delta=2
    40                           	psect	text21,local,class=CODE,merge=1,delta=2,group=1
    41                           	psect	text22,local,class=CODE,merge=1,delta=2,group=1
    42                           	psect	text23,local,class=CODE,merge=1,delta=2,group=1
    43                           	psect	text24,local,class=CODE,merge=1,delta=2,group=1
    44                           	psect	text25,local,class=CODE,merge=1,delta=2,group=1
    45                           	psect	text26,local,class=CODE,merge=1,delta=2,group=1
    46                           	psect	text27,local,class=CODE,merge=1,delta=2,group=1
    47                           	psect	text28,local,class=CODE,merge=1,delta=2
    48                           	psect	text29,local,class=CODE,merge=1,delta=2
    49                           	psect	text30,local,class=CODE,merge=1,delta=2
    50                           	psect	text31,local,class=CODE,merge=1,delta=2
    51                           	psect	intentry,global,class=CODE,delta=2
    52                           	dabs	1,0x7E,2
    53  0000                     
    54                           ; Version 2.10
    55                           ; Generated 31/07/2019 GMT
    56                           ; 
    57                           ; Copyright © 2019, Microchip Technology Inc. and its subsidiaries ("Microchip")
    58                           ; All rights reserved.
    59                           ; 
    60                           ; This software is developed by Microchip Technology Inc. and its subsidiaries ("Microch
      +                          ip").
    61                           ; 
    62                           ; Redistribution and use in source and binary forms, with or without modification, are
    63                           ; permitted provided that the following conditions are met:
    64                           ; 
    65                           ;     1. Redistributions of source code must retain the above copyright notice, this lis
      +                          t of
    66                           ;        conditions and the following disclaimer.
    67                           ; 
    68                           ;     2. Redistributions in binary form must reproduce the above copyright notice, this 
      +                          list
    69                           ;        of conditions and the following disclaimer in the documentation and/or other
    70                           ;        materials provided with the distribution.
    71                           ; 
    72                           ;     3. Microchip's name may not be used to endorse or promote products derived from th
      +                          is
    73                           ;        software without specific prior written permission.
    74                           ; 
    75                           ; THIS SOFTWARE IS PROVIDED BY MICROCHIP "AS IS" AND ANY EXPRESS OR IMPLIED WARRANTIES,
    76                           ; INCLUDING, BUT NOT LIMITED TO, THE IMPLIED WARRANTIES OF MERCHANTABILITY AND FITNESS F
      +                          OR
    77                           ; PURPOSE ARE DISCLAIMED.  IN NO EVENT SHALL MICROCHIP BE LIABLE FOR ANY DIRECT, INDIREC
      +                          T,
    78                           ; INCIDENTAL, SPECIAL, EXEMPLARY, OR CONSEQUENTIAL DAMAGES (INCLUDING BUT NOT LIMITED TO
    79                           ; PROCUREMENT OF SUBSTITUTE GOODS OR SERVICES; LOSS OF USE, DATA OR PROFITS; OR BUSINESS
    80                           ; INTERRUPTION) HOWSOEVER CAUSED AND ON ANY THEORY OF LIABILITY, WHETHER IN CONTRACT, ST
      +                          RICT
    81                           ; LIABILITY, OR TORT (INCLUDING NEGLIGENCE OR OTHERWISE) ARISING IN ANY WAY OUT OF THE U
      +                          SE OF
    82                           ; THIS SOFTWARE, EVEN IF ADVISED OF THE POSSIBILITY OF SUCH DAMAGE.
    83                           ; 
    84                           ; 
    85                           ; Code-generator required, PIC16F877A Definitions
    86                           ; 
    87                           ; SFR Addresses
    88  0000                     	;# 
    89  0001                     	;# 
    90  0002                     	;# 
    91  0003                     	;# 
    92  0004                     	;# 
    93  0005                     	;# 
    94  0006                     	;# 
    95  0007                     	;# 
    96  0008                     	;# 
    97  0009                     	;# 
    98  000A                     	;# 
    99  000B                     	;# 
   100  000C                     	;# 
   101  000D                     	;# 
   102  000E                     	;# 
   103  000E                     	;# 
   104  000F                     	;# 
   105  0010                     	;# 
   106  0011                     	;# 
   107  0012                     	;# 
   108  0013                     	;# 
   109  0014                     	;# 
   110  0015                     	;# 
   111  0015                     	;# 
   112  0016                     	;# 
   113  0017                     	;# 
   114  0018                     	;# 
   115  0019                     	;# 
   116  001A                     	;# 
   117  001B                     	;# 
   118  001B                     	;# 
   119  001C                     	;# 
   120  001D                     	;# 
   121  001E                     	;# 
   122  001F                     	;# 
   123  0081                     	;# 
   124  0085                     	;# 
   125  0086                     	;# 
   126  0087                     	;# 
   127  0088                     	;# 
   128  0089                     	;# 
   129  008C                     	;# 
   130  008D                     	;# 
   131  008E                     	;# 
   132  0091                     	;# 
   133  0092                     	;# 
   134  0093                     	;# 
   135  0094                     	;# 
   136  0098                     	;# 
   137  0099                     	;# 
   138  009C                     	;# 
   139  009D                     	;# 
   140  009E                     	;# 
   141  009F                     	;# 
   142  010C                     	;# 
   143  010D                     	;# 
   144  010E                     	;# 
   145  010F                     	;# 
   146  018C                     	;# 
   147  018D                     	;# 
   148  0000                     	;# 
   149  0001                     	;# 
   150  0002                     	;# 
   151  0003                     	;# 
   152  0004                     	;# 
   153  0005                     	;# 
   154  0006                     	;# 
   155  0007                     	;# 
   156  0008                     	;# 
   157  0009                     	;# 
   158  000A                     	;# 
   159  000B                     	;# 
   160  000C                     	;# 
   161  000D                     	;# 
   162  000E                     	;# 
   163  000E                     	;# 
   164  000F                     	;# 
   165  0010                     	;# 
   166  0011                     	;# 
   167  0012                     	;# 
   168  0013                     	;# 
   169  0014                     	;# 
   170  0015                     	;# 
   171  0015                     	;# 
   172  0016                     	;# 
   173  0017                     	;# 
   174  0018                     	;# 
   175  0019                     	;# 
   176  001A                     	;# 
   177  001B                     	;# 
   178  001B                     	;# 
   179  001C                     	;# 
   180  001D                     	;# 
   181  001E                     	;# 
   182  001F                     	;# 
   183  0081                     	;# 
   184  0085                     	;# 
   185  0086                     	;# 
   186  0087                     	;# 
   187  0088                     	;# 
   188  0089                     	;# 
   189  008C                     	;# 
   190  008D                     	;# 
   191  008E                     	;# 
   192  0091                     	;# 
   193  0092                     	;# 
   194  0093                     	;# 
   195  0094                     	;# 
   196  0098                     	;# 
   197  0099                     	;# 
   198  009C                     	;# 
   199  009D                     	;# 
   200  009E                     	;# 
   201  009F                     	;# 
   202  010C                     	;# 
   203  010D                     	;# 
   204  010E                     	;# 
   205  010F                     	;# 
   206  018C                     	;# 
   207  018D                     	;# 
   208                           
   209                           	psect	idataCOMMON
   210  07FC                     __pidataCOMMON:	
   211                           
   212                           ;initializer for ADC_LCD@firsttime
   213  07FC  3402               	retlw	2
   214                           
   215                           ;initializer for _Key
   216  07FD  34FF               	retlw	255
   217                           
   218                           	psect	idataBANK1
   219  1550                     __pidataBANK1:	
   220                           
   221                           ;initializer for SETTIME_LCD@F900
   222  1550  3420               	retlw	32
   223  1551  3420               	retlw	32
   224  1552  3420               	retlw	32
   225  1553  343C               	retlw	60
   226  1554  3453               	retlw	83
   227  1555  3445               	retlw	69
   228  1556  3454               	retlw	84
   229  1557  3420               	retlw	32
   230  1558  3454               	retlw	84
   231  1559  3469               	retlw	105
   232  155A  346D               	retlw	109
   233  155B  3465               	retlw	101
   234  155C  343E               	retlw	62
   235  155D  3420               	retlw	32
   236  155E  3420               	retlw	32
   237  155F  3420               	retlw	32
   238                           
   239                           ;initializer for LCD_Start@F893
   240  1560  344D               	retlw	77
   241  1561  3469               	retlw	105
   242  1562  3463               	retlw	99
   243  1563  3472               	retlw	114
   244  1564  346F               	retlw	111
   245  1565  3477               	retlw	119
   246  1566  3461               	retlw	97
   247  1567  3476               	retlw	118
   248  1568  3465               	retlw	101
   249  1569  3420               	retlw	32
   250  156A  3420               	retlw	32
   251  156B  3450               	retlw	80
   252  156C  3431               	retlw	49
   253  156D  342E               	retlw	46
   254  156E  3433               	retlw	51
   255  156F  344D               	retlw	77
   256                           
   257                           ;initializer for LCD_Start@F891
   258  1570  3457               	retlw	87
   259  1571  3465               	retlw	101
   260  1572  346C               	retlw	108
   261  1573  3463               	retlw	99
   262  1574  346F               	retlw	111
   263  1575  346D               	retlw	109
   264  1576  3465               	retlw	101
   265  1577  3421               	retlw	33
   266  1578  3420               	retlw	32
   267  1579  3420               	retlw	32
   268  157A  3420               	retlw	32
   269  157B  3420               	retlw	32
   270  157C  3420               	retlw	32
   271  157D  3420               	retlw	32
   272  157E  3420               	retlw	32
   273  157F  342E               	retlw	46
   274                           
   275                           ;initializer for SETHEAT_LCD@F906
   276  1580  3450               	retlw	80
   277  1581  346F               	retlw	111
   278  1582  3474               	retlw	116
   279  1583  342E               	retlw	46
   280  1584  3450               	retlw	80
   281  1585  3431               	retlw	49
   282  1586  3429               	retlw	41
   283                           
   284                           ;initializer for _TIME
   285  1587  3430               	retlw	48
   286  1588  3430               	retlw	48
   287  1589  343A               	retlw	58
   288  158A  3430               	retlw	48
   289  158B  3430               	retlw	48
   290                           
   291                           	psect	idataBANK3
   292  139B                     __pidataBANK3:	
   293                           
   294                           ;initializer for SETHEAT_LCD@F904
   295  139B  3420               	retlw	32
   296  139C  3420               	retlw	32
   297  139D  343C               	retlw	60
   298  139E  343C               	retlw	60
   299  139F  3453               	retlw	83
   300  13A0  3445               	retlw	69
   301  13A1  3454               	retlw	84
   302  13A2  3420               	retlw	32
   303  13A3  3448               	retlw	72
   304  13A4  3445               	retlw	69
   305  13A5  3441               	retlw	65
   306  13A6  3454               	retlw	84
   307  13A7  343E               	retlw	62
   308  13A8  343E               	retlw	62
   309  13A9  3420               	retlw	32
   310  13AA  3420               	retlw	32
   311  0006                     _PORTBbits	set	6
   312  0007                     _PORTCbits	set	7
   313  000E                     _TMR1L	set	14
   314  000F                     _TMR1H	set	15
   315  0010                     _T1CON	set	16
   316  001E                     _ADRESH	set	30
   317  001F                     _ADCON0bits	set	31
   318  001F                     _ADCON0	set	31
   319  0008                     _PORTDbits	set	8
   320  0006                     _PORTB	set	6
   321  0009                     _PORTEbits	set	9
   322  0008                     _PORTD	set	8
   323  0060                     _TMR1IF	set	96
   324  0080                     _TMR1ON	set	128
   325  005E                     _PEIE	set	94
   326  005F                     _GIE	set	95
   327  0089                     _TRISE	set	137
   328  0089                     _TRISEbits	set	137
   329  0087                     _TRISC	set	135
   330  0087                     _TRISCbits	set	135
   331  009E                     _ADRESL	set	158
   332  009F                     _ADCON1	set	159
   333  0086                     _TRISB	set	134
   334  0088                     _TRISD	set	136
   335  0434                     _TRISB4	set	1076
   336  0460                     _TMR1IE	set	1120
   337  044A                     _TRISE2	set	1098
   338  0449                     _TRISE1	set	1097
   339                           
   340                           	psect	strings
   341  1000                     __pstrings:	
   342  1000                     stringtab:	
   343  1000                     __stringtab:	
   344  1000                     stringcode:	
   345                           ;	String table - string pointers are 1 byte each
   346                           
   347  1000                     stringdir:	
   348  1000  3010               	movlw	high stringdir
   349  1001  008A               	movwf	10
   350  1002  0804               	movf	4,w
   351  1003  0A84               	incf	4,f
   352  1004  0782               	addwf	2,f
   353  1005                     __stringbase:	
   354  1005  3400               	retlw	0
   355  1006                     __end_of__stringtab:	
   356  1006                     STR_9:	
   357  1006  343C               	retlw	60	;'<'
   358  1007  3452               	retlw	82	;'R'
   359  1008  3465               	retlw	101	;'e'
   360  1009  3445               	retlw	69	;'E'
   361  100A  346E               	retlw	110	;'n'
   362  100B  3474               	retlw	116	;'t'
   363  100C  3465               	retlw	101	;'e'
   364  100D  3472               	retlw	114	;'r'
   365  100E  3420               	retlw	32	;' '
   366  100F  3474               	retlw	116	;'t'
   367  1010  3469               	retlw	105	;'i'
   368  1011  346D               	retlw	109	;'m'
   369  1012  3465               	retlw	101	;'e'
   370  1013  343E               	retlw	62	;'>'
   371  1014  3400               	retlw	0
   372  1015                     STR_7:	
   373  1015  3420               	retlw	32	;' '
   374  1016  3420               	retlw	32	;' '
   375  1017  3420               	retlw	32	;' '
   376  1018  3442               	retlw	66	;'B'
   377  1019  346F               	retlw	111	;'o'
   378  101A  346E               	retlw	110	;'n'
   379  101B  3420               	retlw	32	;' '
   380  101C  3461               	retlw	97	;'a'
   381  101D  3470               	retlw	112	;'p'
   382  101E  3470               	retlw	112	;'p'
   383  101F  3465               	retlw	101	;'e'
   384  1020  3474               	retlw	116	;'t'
   385  1021  3469               	retlw	105	;'i'
   386  1022  3474               	retlw	116	;'t'
   387  1023  3400               	retlw	0
   388  1024                     STR_6:	
   389  1024  3420               	retlw	32	;' '
   390  1025  3420               	retlw	32	;' '
   391  1026  3420               	retlw	32	;' '
   392  1027  3446               	retlw	70	;'F'
   393  1028  344F               	retlw	79	;'O'
   394  1029  344F               	retlw	79	;'O'
   395  102A  3444               	retlw	68	;'D'
   396  102B  3420               	retlw	32	;' '
   397  102C  3452               	retlw	82	;'R'
   398  102D  3445               	retlw	69	;'E'
   399  102E  3441               	retlw	65	;'A'
   400  102F  3444               	retlw	68	;'D'
   401  1030  3459               	retlw	89	;'Y'
   402  1031  3400               	retlw	0
   403  1032                     STR_8:	
   404  1032  3454               	retlw	84	;'T'
   405  1033  3469               	retlw	105	;'i'
   406  1034  346D               	retlw	109	;'m'
   407  1035  3465               	retlw	101	;'e'
   408  1036  3420               	retlw	32	;' '
   409  1037  3469               	retlw	105	;'i'
   410  1038  3473               	retlw	115	;'s'
   411  1039  3420               	retlw	32	;' '
   412  103A  3453               	retlw	83	;'S'
   413  103B  346D               	retlw	109	;'m'
   414  103C  3461               	retlw	97	;'a'
   415  103D  346C               	retlw	108	;'l'
   416  103E  346C               	retlw	108	;'l'
   417  103F  3400               	retlw	0
   418  1040                     STR_2:	
   419  1040  344D               	retlw	77	;'M'
   420  1041  3469               	retlw	105	;'i'
   421  1042  3463               	retlw	99	;'c'
   422  1043  3472               	retlw	114	;'r'
   423  1044  346F               	retlw	111	;'o'
   424  1045  3477               	retlw	119	;'w'
   425  1046  3461               	retlw	97	;'a'
   426  1047  3476               	retlw	118	;'v'
   427  1048  3465               	retlw	101	;'e'
   428  1049  3420               	retlw	32	;' '
   429  104A  3420               	retlw	32	;' '
   430  104B  3400               	retlw	0
   431  104C                     STR_5:	
   432  104C  3450               	retlw	80	;'P'
   433  104D  3441               	retlw	65	;'A'
   434  104E  3455               	retlw	85	;'U'
   435  104F  3453               	retlw	83	;'S'
   436  1050  3445               	retlw	69	;'E'
   437  1051  3444               	retlw	68	;'D'
   438  1052  3421               	retlw	33	;'!'
   439  1053  3421               	retlw	33	;'!'
   440  1054  3420               	retlw	32	;' '
   441  1055  3400               	retlw	0
   442  1056                     STR_4:	
   443  1056  3444               	retlw	68	;'D'
   444  1057  344F               	retlw	79	;'O'
   445  1058  344F               	retlw	79	;'O'
   446  1059  3452               	retlw	82	;'R'
   447  105A  3420               	retlw	32	;' '
   448  105B  344F               	retlw	79	;'O'
   449  105C  3450               	retlw	80	;'P'
   450  105D  3445               	retlw	69	;'E'
   451  105E  344E               	retlw	78	;'N'
   452  105F  3400               	retlw	0
   453  1060                     STR_1:	
   454  1060  344D               	retlw	77	;'M'
   455  1061  3469               	retlw	105	;'i'
   456  1062  3463               	retlw	99	;'c'
   457  1063  3472               	retlw	114	;'r'
   458  1064  346F               	retlw	111	;'o'
   459  1065  3477               	retlw	119	;'w'
   460  1066  3461               	retlw	97	;'a'
   461  1067  3476               	retlw	118	;'v'
   462  1068  3465               	retlw	101	;'e'
   463  1069  3400               	retlw	0
   464  106A                     STR_3:	
   465  106A  344F               	retlw	79	;'O'
   466  106B  344E               	retlw	78	;'N'
   467  106C  3421               	retlw	33	;'!'
   468  106D  3420               	retlw	32	;' '
   469  106E  3400               	retlw	0
   470                           
   471                           ; #config settings
   472  0000                     
   473                           	psect	cinit
   474  000F                     start_initialization:	
   475  000F                     __initialization:	
   476                           
   477                           ; Initialize objects allocated to BANK3
   478  000F  1783               	bsf	3,7	;select IRP bank2
   479  0010  30A0               	movlw	low (__pdataBANK3+16)
   480  0011  00FD               	movwf	btemp+-1
   481  0012  3013               	movlw	high __pidataBANK3
   482  0013  00FE               	movwf	btemp
   483  0014  309B               	movlw	low __pidataBANK3
   484  0015  00FF               	movwf	btemp+1
   485  0016  3090               	movlw	low __pdataBANK3
   486  0017  0084               	movwf	4
   487  0018  160A  118A  23C0  120A  118A  	fcall	init_ram0
   488                           
   489                           ; Initialize objects allocated to BANK1
   490  001D  1383               	bcf	3,7	;select IRP bank0
   491  001E  30DC               	movlw	low (__pdataBANK1+60)
   492  001F  00FD               	movwf	btemp+-1
   493  0020  3015               	movlw	high __pidataBANK1
   494  0021  00FE               	movwf	btemp
   495  0022  3050               	movlw	low __pidataBANK1
   496  0023  00FF               	movwf	btemp+1
   497  0024  30A0               	movlw	low __pdataBANK1
   498  0025  0084               	movwf	4
   499  0026  160A  118A  23C0  120A  118A  	fcall	init_ram0
   500                           
   501                           ; Initialize objects allocated to COMMON
   502  002B  120A  118A  27FC  120A  118A  	fcall	__pidataCOMMON	;fetch initializer
   503  0030  00F9               	movwf	__pdataCOMMON& (0+127)
   504  0031  120A  118A  27FD  120A  118A  	fcall	__pidataCOMMON+1	;fetch initializer
   505  0036  00FA               	movwf	(__pdataCOMMON+1)& (0+127)
   506                           
   507                           ; Clear objects allocated to BANK1
   508  0037  1683               	bsf	3,5	;RP0=1, select bank1
   509  0038  1303               	bcf	3,6	;RP1=0, select bank1
   510  0039  01EB               	clrf	__pbssBANK1& (0+127)
   511  003A  01EC               	clrf	(__pbssBANK1+1)& (0+127)
   512  003B  01ED               	clrf	(__pbssBANK1+2)& (0+127)
   513  003C  01EE               	clrf	(__pbssBANK1+3)& (0+127)
   514  003D  01EF               	clrf	(__pbssBANK1+4)& (0+127)
   515                           
   516                           ; Clear objects allocated to BANK0
   517  003E  1283               	bcf	3,5	;RP0=0, select bank0
   518  003F  1303               	bcf	3,6	;RP1=0, select bank0
   519  0040  01E8               	clrf	__pbssBANK0& (0+127)
   520  0041  01E9               	clrf	(__pbssBANK0+1)& (0+127)
   521  0042  01EA               	clrf	(__pbssBANK0+2)& (0+127)
   522  0043  01EB               	clrf	(__pbssBANK0+3)& (0+127)
   523  0044  01EC               	clrf	(__pbssBANK0+4)& (0+127)
   524  0045  01ED               	clrf	(__pbssBANK0+5)& (0+127)
   525  0046  01EE               	clrf	(__pbssBANK0+6)& (0+127)
   526  0047  01EF               	clrf	(__pbssBANK0+7)& (0+127)
   527                           
   528                           ; Clear objects allocated to COMMON
   529  0048  01FB               	clrf	__pbssCOMMON& (0+127)
   530  0049                     end_of_initialization:	
   531                           ;End of C runtime variable initialization code
   532                           
   533  0049                     __end_of__initialization:	
   534  0049  0183               	clrf	3
   535  004A  120A  118A  2BAE   	ljmp	_main	;jump to C main() function
   536                           
   537                           	psect	bssCOMMON
   538  007B                     __pbssCOMMON:	
   539  007B                     _digit:	
   540  007B                     	ds	1
   541                           
   542                           	psect	dataCOMMON
   543  0079                     __pdataCOMMON:	
   544  0079                     ADC_LCD@firsttime:	
   545  0079                     	ds	1
   546  007A                     _Key:	
   547  007A                     	ds	1
   548                           
   549                           	psect	bssBANK0
   550  0068                     __pbssBANK0:	
   551  0068                     _TIMEinSec:	
   552  0068                     	ds	2
   553  006A                     ADC_Read@ADC_Var:	
   554  006A                     	ds	2
   555  006C                     _HeatSET:	
   556  006C                     	ds	1
   557  006D                     _DOOR:	
   558  006D                     	ds	1
   559  006E                     _STATEF:	
   560  006E                     	ds	1
   561  006F                     _TMR1Counter:	
   562  006F                     	ds	1
   563                           
   564                           	psect	bssBANK1
   565  00EB                     __pbssBANK1:	
   566  00EB                     _Temp:	
   567  00EB                     	ds	5
   568                           
   569                           	psect	dataBANK1
   570  00A0                     __pdataBANK1:	
   571  00A0                     SETTIME_LCD@F900:	
   572  00A0                     	ds	16
   573  00B0                     LCD_Start@F893:	
   574  00B0                     	ds	16
   575  00C0                     LCD_Start@F891:	
   576  00C0                     	ds	16
   577  00D0                     SETHEAT_LCD@F906:	
   578  00D0                     	ds	7
   579  00D7                     _TIME:	
   580  00D7                     	ds	5
   581                           
   582                           	psect	dataBANK3
   583  0190                     __pdataBANK3:	
   584  0190                     SETHEAT_LCD@F904:	
   585  0190                     	ds	16
   586                           
   587                           	psect	inittext
   588  13BC                     init_fetch0:	
   589                           ;	Called with low address in FSR and high address in W
   590                           
   591  13BC  087E               	movf	btemp,w
   592  13BD  008A               	movwf	10
   593  13BE  087F               	movf	btemp+1,w
   594  13BF  0082               	movwf	2
   595  13C0                     init_ram0:	
   596                           ;Called with:
   597                           ;	high address of idata address in btemp 
   598                           ;	low address of idata address in btemp+1 
   599                           ;	low address of data in FSR
   600                           ;	high address + 1 of data in btemp-1
   601                           
   602  13C0  160A  118A  23BC  160A  118A  	fcall	init_fetch0
   603  13C5  0080               	movwf	0
   604  13C6  0A84               	incf	4,f
   605  13C7  0804               	movf	4,w
   606  13C8  067D               	xorwf	btemp+-1,w
   607  13C9  1903               	btfsc	3,2
   608  13CA  3400               	retlw	0
   609  13CB  0AFF               	incf	btemp+1,f
   610  13CC  1903               	btfsc	3,2
   611  13CD  0AFE               	incf	btemp,f
   612  13CE  2BC0               	goto	init_ram0
   613                           
   614                           	psect	cstackBANK1
   615  00DC                     __pcstackBANK1:	
   616  00DC                     ADC_Read@Temp:	
   617                           
   618                           ; 1 bytes @ 0x0
   619  00DC                     	ds	1
   620  00DD                     ??_main:	
   621                           
   622                           ; 1 bytes @ 0x1
   623  00DD                     	ds	14
   624                           
   625                           	psect	cstackCOMMON
   626  0070                     __pcstackCOMMON:	
   627  0070                     ?_DOORSTATE:	
   628  0070                     ?_LampON:	
   629                           ; 1 bytes @ 0x0
   630                           
   631  0070                     ?_PAUSED:	
   632                           ; 1 bytes @ 0x0
   633                           
   634  0070                     ?_MDONE:	
   635                           ; 1 bytes @ 0x0
   636                           
   637  0070                     ?_send_a_command:	
   638                           ; 1 bytes @ 0x0
   639                           
   640  0070                     ?_send_a_character:	
   641                           ; 1 bytes @ 0x0
   642                           
   643  0070                     ?_Move_Cursor_R:	
   644                           ; 1 bytes @ 0x0
   645                           
   646  0070                     ?_Move_Cursor_L:	
   647                           ; 1 bytes @ 0x0
   648                           
   649  0070                     ?_LCD_Start:	
   650                           ; 1 bytes @ 0x0
   651                           
   652  0070                     ?_lcd_init:	
   653                           ; 1 bytes @ 0x0
   654                           
   655  0070                     ?_LCD_Print_Hex:	
   656                           ; 1 bytes @ 0x0
   657                           
   658  0070                     ?_SETTIME_LCD:	
   659                           ; 1 bytes @ 0x0
   660                           
   661  0070                     ?_SETHEAT_LCD:	
   662                           ; 1 bytes @ 0x0
   663                           
   664  0070                     ?_ADC_LCD:	
   665                           ; 1 bytes @ 0x0
   666                           
   667  0070                     ?_GetKeyPressed:	
   668                           ; 1 bytes @ 0x0
   669                           
   670  0070                     ?_ADC_Read:	
   671                           ; 1 bytes @ 0x0
   672                           
   673  0070                     ?_InitTimer:	
   674                           ; 1 bytes @ 0x0
   675                           
   676  0070                     ?_MONDelay:	
   677                           ; 1 bytes @ 0x0
   678                           
   679  0070                     ?_main:	
   680                           ; 1 bytes @ 0x0
   681                           
   682  0070                     ?_ISR_H:	
   683                           ; 1 bytes @ 0x0
   684                           
   685  0070                     ??_ISR_H:	
   686                           ; 1 bytes @ 0x0
   687                           
   688                           
   689                           ; 1 bytes @ 0x0
   690  0070                     	ds	2
   691  0072                     ??_DOORSTATE:	
   692  0072                     ??_LampON:	
   693                           ; 1 bytes @ 0x2
   694                           
   695  0072                     ??_send_a_command:	
   696                           ; 1 bytes @ 0x2
   697                           
   698  0072                     ??_send_a_character:	
   699                           ; 1 bytes @ 0x2
   700                           
   701  0072                     ??_GetKeyPressed:	
   702                           ; 1 bytes @ 0x2
   703                           
   704  0072                     ??_InitTimer:	
   705                           ; 1 bytes @ 0x2
   706                           
   707  0072                     ?__Umul8_16:	
   708                           ; 1 bytes @ 0x2
   709                           
   710  0072                     ?___wmul:	
   711                           ; 2 bytes @ 0x2
   712                           
   713  0072                     ?___lwdiv:	
   714                           ; 2 bytes @ 0x2
   715                           
   716  0072                     ?___xxtofl:	
   717                           ; 2 bytes @ 0x2
   718                           
   719  0072                     LampON@LampF:	
   720                           ; 4 bytes @ 0x2
   721                           
   722  0072                     __Umul8_16@multiplicand:	
   723                           ; 1 bytes @ 0x2
   724                           
   725  0072                     ___wmul@multiplier:	
   726                           ; 1 bytes @ 0x2
   727                           
   728  0072                     ___lwdiv@divisor:	
   729                           ; 2 bytes @ 0x2
   730                           
   731  0072                     ___xxtofl@val:	
   732                           ; 2 bytes @ 0x2
   733                           
   734                           
   735                           ; 4 bytes @ 0x2
   736  0072                     	ds	2
   737  0074                     ??__Umul8_16:	
   738  0074                     send_a_command@command:	
   739                           ; 1 bytes @ 0x4
   740                           
   741  0074                     send_a_character@character:	
   742                           ; 1 bytes @ 0x4
   743                           
   744  0074                     ___wmul@multiplicand:	
   745                           ; 1 bytes @ 0x4
   746                           
   747  0074                     ___lwdiv@dividend:	
   748                           ; 2 bytes @ 0x4
   749                           
   750                           
   751                           ; 2 bytes @ 0x4
   752  0074                     	ds	1
   753  0075                     ??_Move_Cursor_R:	
   754  0075                     ??_Move_Cursor_L:	
   755                           ; 1 bytes @ 0x5
   756                           
   757  0075                     ?_Move_Cursor_To:	
   758                           ; 1 bytes @ 0x5
   759                           
   760  0075                     ??_LCD_Start:	
   761                           ; 1 bytes @ 0x5
   762                           
   763  0075                     ??_lcd_init:	
   764                           ; 1 bytes @ 0x5
   765                           
   766  0075                     ??_LCD_Print_Hex:	
   767                           ; 1 bytes @ 0x5
   768                           
   769  0075                     ??_SETHEAT_LCD:	
   770                           ; 1 bytes @ 0x5
   771                           
   772  0075                     ??_ADC_LCD:	
   773                           ; 1 bytes @ 0x5
   774                           
   775  0075                     ?_PrintLINE1:	
   776                           ; 1 bytes @ 0x5
   777                           
   778  0075                     ?_PrintLINE2:	
   779                           ; 1 bytes @ 0x5
   780                           
   781  0075                     ??_MONDelay:	
   782                           ; 1 bytes @ 0x5
   783                           
   784  0075                     Move_Cursor_To@L2:	
   785                           ; 1 bytes @ 0x5
   786                           
   787  0075                     PrintLINE1@length:	
   788                           ; 1 bytes @ 0x5
   789                           
   790  0075                     PrintLINE2@length:	
   791                           ; 1 bytes @ 0x5
   792                           
   793  0075                     GetKeyPressed@c:	
   794                           ; 1 bytes @ 0x5
   795                           
   796                           
   797                           ; 1 bytes @ 0x5
   798  0075                     	ds	1
   799  0076                     ??_Move_Cursor_To:	
   800  0076                     ??___wmul:	
   801                           ; 1 bytes @ 0x6
   802                           
   803  0076                     ??___lwdiv:	
   804                           ; 1 bytes @ 0x6
   805                           
   806  0076                     PrintLINE1@ptrSTR:	
   807                           ; 1 bytes @ 0x6
   808                           
   809  0076                     PrintLINE2@ptrSTR:	
   810                           ; 1 bytes @ 0x6
   811                           
   812  0076                     MONDelay@i:	
   813                           ; 1 bytes @ 0x6
   814                           
   815  0076                     ___fltol@sign1:	
   816                           ; 1 bytes @ 0x6
   817                           
   818  0076                     ___wmul@product:	
   819                           ; 1 bytes @ 0x6
   820                           
   821                           
   822                           ; 2 bytes @ 0x6
   823  0076                     	ds	1
   824  0077                     ??___lwmod:	
   825  0077                     LCD_Print_Hex@KEY:	
   826                           ; 1 bytes @ 0x7
   827                           
   828  0077                     PrintLINE1@place:	
   829                           ; 1 bytes @ 0x7
   830                           
   831  0077                     PrintLINE2@place:	
   832                           ; 1 bytes @ 0x7
   833                           
   834  0077                     ___fltol@exp1:	
   835                           ; 1 bytes @ 0x7
   836                           
   837                           
   838                           ; 1 bytes @ 0x7
   839  0077                     	ds	1
   840  0078                     MDONE@i:	
   841  0078                     ___lwmod@counter:	
   842                           ; 1 bytes @ 0x8
   843                           
   844                           
   845                           ; 1 bytes @ 0x8
   846  0078                     	ds	1
   847                           
   848                           	psect	cstackBANK0
   849  0020                     __pcstackBANK0:	
   850  0020                     ??_PrintLINE1:	
   851  0020                     ??_PrintLINE2:	
   852                           ; 1 bytes @ 0x0
   853                           
   854  0020                     ??___xxtofl:	
   855                           ; 1 bytes @ 0x0
   856                           
   857  0020                     Move_Cursor_R@NumShiftingR:	
   858                           ; 1 bytes @ 0x0
   859                           
   860  0020                     Move_Cursor_L@NumShiftingL:	
   861                           ; 1 bytes @ 0x0
   862                           
   863  0020                     Move_Cursor_To@L1:	
   864                           ; 1 bytes @ 0x0
   865                           
   866  0020                     ADC_LCD@ptrTemp:	
   867                           ; 1 bytes @ 0x0
   868                           
   869  0020                     ___lwdiv@counter:	
   870                           ; 1 bytes @ 0x0
   871                           
   872  0020                     __Umul8_16@product:	
   873                           ; 1 bytes @ 0x0
   874                           
   875  0020                     LCD_Start@a:	
   876                           ; 2 bytes @ 0x0
   877                           
   878  0020                     SETHEAT_LCD@a:	
   879                           ; 16 bytes @ 0x0
   880                           
   881                           
   882                           ; 16 bytes @ 0x0
   883  0020                     	ds	1
   884  0021                     Move_Cursor_R@i:	
   885  0021                     Move_Cursor_L@i:	
   886                           ; 1 bytes @ 0x1
   887                           
   888  0021                     ADC_LCD@i:	
   889                           ; 1 bytes @ 0x1
   890                           
   891  0021                     ___lwdiv@quotient:	
   892                           ; 1 bytes @ 0x1
   893                           
   894                           
   895                           ; 2 bytes @ 0x1
   896  0021                     	ds	1
   897  0022                     ??_SETTIME_LCD:	
   898  0022                     __Umul8_16@word_mpld:	
   899                           ; 1 bytes @ 0x2
   900                           
   901                           
   902                           ; 2 bytes @ 0x2
   903  0022                     	ds	1
   904  0023                     ??_PAUSED:	
   905  0023                     ??_MDONE:	
   906                           ; 1 bytes @ 0x3
   907                           
   908  0023                     ?___lwmod:	
   909                           ; 1 bytes @ 0x3
   910                           
   911  0023                     ___lwmod@divisor:	
   912                           ; 2 bytes @ 0x3
   913                           
   914                           
   915                           ; 2 bytes @ 0x3
   916  0023                     	ds	1
   917  0024                     ___xxtofl@sign:	
   918  0024                     __Umul8_16@multiplier:	
   919                           ; 1 bytes @ 0x4
   920                           
   921                           
   922                           ; 1 bytes @ 0x4
   923  0024                     	ds	1
   924  0025                     ___xxtofl@exp:	
   925  0025                     ___lwmod@dividend:	
   926                           ; 1 bytes @ 0x5
   927                           
   928                           
   929                           ; 2 bytes @ 0x5
   930  0025                     	ds	1
   931  0026                     ___xxtofl@arg:	
   932  0026                     SETTIME_LCD@a:	
   933                           ; 4 bytes @ 0x6
   934                           
   935                           
   936                           ; 16 bytes @ 0x6
   937  0026                     	ds	1
   938  0027                     ?_ONStatus:	
   939  0027                     ONStatus@Time:	
   940                           ; 1 bytes @ 0x7
   941                           
   942                           
   943                           ; 2 bytes @ 0x7
   944  0027                     	ds	2
   945  0029                     ONStatus@ptrTemp:	
   946                           
   947                           ; 1 bytes @ 0x9
   948  0029                     	ds	1
   949  002A                     ??_ONStatus:	
   950  002A                     ?___flmul:	
   951                           ; 1 bytes @ 0xA
   952                           
   953  002A                     ___flmul@b:	
   954                           ; 4 bytes @ 0xA
   955                           
   956                           
   957                           ; 4 bytes @ 0xA
   958  002A                     	ds	2
   959  002C                     _ONStatus$1030:	
   960                           
   961                           ; 2 bytes @ 0xC
   962  002C                     	ds	2
   963  002E                     _ONStatus$1031:	
   964  002E                     ___flmul@a:	
   965                           ; 2 bytes @ 0xE
   966                           
   967                           
   968                           ; 4 bytes @ 0xE
   969  002E                     	ds	2
   970  0030                     ONStatus@i:	
   971  0030                     SETHEAT_LCD@b:	
   972                           ; 1 bytes @ 0x10
   973                           
   974  0030                     LCD_Start@b:	
   975                           ; 7 bytes @ 0x10
   976                           
   977                           
   978                           ; 16 bytes @ 0x10
   979  0030                     	ds	2
   980  0032                     ??___flmul:	
   981                           
   982                           ; 1 bytes @ 0x12
   983  0032                     	ds	4
   984  0036                     SETTIME_LCD@i:	
   985                           
   986                           ; 1 bytes @ 0x16
   987  0036                     	ds	1
   988  0037                     SETHEAT_LCD@i:	
   989  0037                     ___flmul@sign:	
   990                           ; 1 bytes @ 0x17
   991                           
   992                           
   993                           ; 1 bytes @ 0x17
   994  0037                     	ds	1
   995  0038                     ___flmul@aexp:	
   996                           
   997                           ; 1 bytes @ 0x18
   998  0038                     	ds	1
   999  0039                     ___flmul@grs:	
  1000                           
  1001                           ; 4 bytes @ 0x19
  1002  0039                     	ds	4
  1003  003D                     ___flmul@bexp:	
  1004                           
  1005                           ; 1 bytes @ 0x1D
  1006  003D                     	ds	1
  1007  003E                     ___flmul@prod:	
  1008                           
  1009                           ; 4 bytes @ 0x1E
  1010  003E                     	ds	2
  1011  0040                     LCD_Start@i:	
  1012                           
  1013                           ; 1 bytes @ 0x20
  1014  0040                     	ds	2
  1015  0042                     ___flmul@temp:	
  1016                           
  1017                           ; 2 bytes @ 0x22
  1018  0042                     	ds	2
  1019  0044                     ?___fladd:	
  1020  0044                     ___fladd@b:	
  1021                           ; 4 bytes @ 0x24
  1022                           
  1023                           
  1024                           ; 4 bytes @ 0x24
  1025  0044                     	ds	4
  1026  0048                     ___fladd@a:	
  1027                           
  1028                           ; 4 bytes @ 0x28
  1029  0048                     	ds	4
  1030  004C                     ??___fladd:	
  1031                           
  1032                           ; 1 bytes @ 0x2C
  1033  004C                     	ds	8
  1034  0054                     ___fladd@signs:	
  1035                           
  1036                           ; 1 bytes @ 0x34
  1037  0054                     	ds	1
  1038  0055                     ___fladd@aexp:	
  1039                           
  1040                           ; 1 bytes @ 0x35
  1041  0055                     	ds	1
  1042  0056                     ___fladd@bexp:	
  1043                           
  1044                           ; 1 bytes @ 0x36
  1045  0056                     	ds	1
  1046  0057                     ___fladd@grs:	
  1047                           
  1048                           ; 1 bytes @ 0x37
  1049  0057                     	ds	1
  1050  0058                     ?___fltol:	
  1051  0058                     ___fltol@f1:	
  1052                           ; 4 bytes @ 0x38
  1053                           
  1054                           
  1055                           ; 4 bytes @ 0x38
  1056  0058                     	ds	4
  1057  005C                     ??___fltol:	
  1058                           
  1059                           ; 1 bytes @ 0x3C
  1060  005C                     	ds	5
  1061  0061                     ??_ADC_Read:	
  1062                           
  1063                           ; 1 bytes @ 0x41
  1064  0061                     	ds	7
  1065                           
  1066                           	psect	maintext
  1067  03AE                     __pmaintext:	
  1068 ;;
  1069 ;;Main: autosize = 0, tempsize = 14, incstack = 0, save=0
  1070 ;;
  1071 ;; *************** function _main *****************
  1072 ;; Defined at:
  1073 ;;		line 48 in file "Project Main.c"
  1074 ;; Parameters:    Size  Location     Type
  1075 ;;		None
  1076 ;; Auto vars:     Size  Location     Type
  1077 ;;		None
  1078 ;; Return value:  Size  Location     Type
  1079 ;;                  1    wreg      void 
  1080 ;; Registers used:
  1081 ;;		wreg, fsr0l, fsr0h, status,2, status,0, btemp+1, pclath, cstack
  1082 ;; Tracked objects:
  1083 ;;		On entry : B00/0
  1084 ;;		On exit  : 0/0
  1085 ;;		Unchanged: 0/0
  1086 ;; Data sizes:     COMMON   BANK0   BANK1   BANK3   BANK2
  1087 ;;      Params:         0       0       0       0       0
  1088 ;;      Locals:         0       0       0       0       0
  1089 ;;      Temps:          0       0      14       0       0
  1090 ;;      Totals:         0       0      14       0       0
  1091 ;;Total ram usage:       14 bytes
  1092 ;; Hardware stack levels required when called:    5
  1093 ;; This function calls:
  1094 ;;		_ADC_LCD
  1095 ;;		_ADC_Read
  1096 ;;		_DOORSTATE
  1097 ;;		_GetKeyPressed
  1098 ;;		_LCD_Print_Hex
  1099 ;;		_LCD_Start
  1100 ;;		_Move_Cursor_L
  1101 ;;		_Move_Cursor_R
  1102 ;;		_Move_Cursor_To
  1103 ;;		_ONStatus
  1104 ;;		_PrintLINE1
  1105 ;;		_PrintLINE2
  1106 ;;		_SETHEAT_LCD
  1107 ;;		_SETTIME_LCD
  1108 ;;		___wmul
  1109 ;;		_lcd_init
  1110 ;;		_send_a_command
  1111 ;; This function is called by:
  1112 ;;		Startup code after reset
  1113 ;; This function uses a non-reentrant model
  1114 ;;
  1115                           
  1116                           
  1117                           ;psect for function _main
  1118  03AE                     _main:	
  1119  03AE                     l4276:	
  1120                           ;incstack = 0
  1121                           ; Regs used in _main: [wreg-fsr0h+status,2+status,0+btemp+1+pclath+cstack]
  1122                           
  1123                           
  1124                           ;Project Main.c: 50:     TRISB=0x18;
  1125  03AE  3018               	movlw	24
  1126  03AF  1683               	bsf	3,5	;RP0=1, select bank1
  1127  03B0  1303               	bcf	3,6	;RP1=0, select bank1
  1128  03B1  0086               	movwf	6	;volatile
  1129                           
  1130                           ;Project Main.c: 51:     TRISC=0x01;
  1131  03B2  3001               	movlw	1
  1132  03B3  0087               	movwf	7	;volatile
  1133  03B4                     l4278:	
  1134                           
  1135                           ;Project Main.c: 52:     TRISD&=0x00;
  1136  03B4  0188               	clrf	8	;volatile
  1137  03B5                     l4280:	
  1138                           
  1139                           ;Project Main.c: 53:     TRISE&=0x00;
  1140  03B5  0189               	clrf	9	;volatile
  1141  03B6                     l4282:	
  1142                           
  1143                           ;Project Main.c: 55:     lcd_init();
  1144  03B6  160A  118A  24A4  120A  118A  	fcall	_lcd_init
  1145  03BB                     l4284:	
  1146                           
  1147                           ;Project Main.c: 56:     LCD_Start();
  1148  03BB  120A  158A  204B  120A  118A  	fcall	_LCD_Start
  1149  03C0                     l4286:	
  1150                           
  1151                           ;Project Main.c: 57:     _delay((unsigned long)((1000)*(16000000UL/4000.0)));
  1152  03C0  3015               	movlw	21
  1153  03C1  1683               	bsf	3,5	;RP0=1, select bank1
  1154  03C2  1303               	bcf	3,6	;RP1=0, select bank1
  1155  03C3  00DF               	movwf	(??_main^(0+128)+2)
  1156  03C4  304B               	movlw	75
  1157  03C5  00DE               	movwf	(??_main^(0+128)+1)
  1158  03C6  30BD               	movlw	189
  1159  03C7  00DD               	movwf	??_main^(0+128)
  1160  03C8                     u6177:	
  1161  03C8  0BDD               	decfsz	??_main^(0+128),f
  1162  03C9  2BC8               	goto	u6177
  1163  03CA  0BDE               	decfsz	(??_main^(0+128)+1),f
  1164  03CB  2BC8               	goto	u6177
  1165  03CC  0BDF               	decfsz	(??_main^(0+128)+2),f
  1166  03CD  2BC8               	goto	u6177
  1167  03CE  2BCF               	nop2
  1168  03CF  2D50               	goto	l4398
  1169  03D0                     l4288:	
  1170                           
  1171                           ;Project Main.c: 64:         {;Project Main.c: 65:             DOORSTATE();
  1172  03D0  160A  118A  258C  120A  118A  	fcall	_DOORSTATE
  1173  03D5                     l4290:	
  1174                           
  1175                           ;Project Main.c: 66:                 if(STATEF==0){
  1176  03D5  1283               	bcf	3,5	;RP0=0, select bank0
  1177  03D6  1303               	bcf	3,6	;RP1=0, select bank0
  1178  03D7  086E               	movf	_STATEF,w	;volatile
  1179  03D8  1D03               	btfss	3,2
  1180  03D9  2BDB               	goto	u5901
  1181  03DA  2BDC               	goto	u5900
  1182  03DB                     u5901:	
  1183  03DB  2BE2               	goto	l4296
  1184  03DC                     u5900:	
  1185  03DC                     l4292:	
  1186                           
  1187                           ;Project Main.c: 67:                     SETTIME_LCD();
  1188  03DC  120A  158A  221C  120A  118A  	fcall	_SETTIME_LCD
  1189  03E1                     l4294:	
  1190                           
  1191                           ;Project Main.c: 68:                     digit=0;
  1192  03E1  01FB               	clrf	_digit
  1193  03E2                     l4296:	
  1194                           
  1195                           ;Project Main.c: 70:             STATEF=1;
  1196  03E2  3001               	movlw	1
  1197  03E3  1683               	bsf	3,5	;RP0=1, select bank1
  1198  03E4  1303               	bcf	3,6	;RP1=0, select bank1
  1199  03E5  00DD               	movwf	??_main^(0+128)
  1200  03E6  085D               	movf	??_main^(0+128),w
  1201  03E7  1283               	bcf	3,5	;RP0=0, select bank0
  1202  03E8  1303               	bcf	3,6	;RP1=0, select bank0
  1203  03E9  00EE               	movwf	_STATEF	;volatile
  1204  03EA                     l4298:	
  1205                           
  1206                           ;Project Main.c: 72:             if(!PORTBbits.RB5){
  1207  03EA  1A86               	btfsc	6,5	;volatile
  1208  03EB  2BED               	goto	u5911
  1209  03EC  2BEE               	goto	u5910
  1210  03ED                     u5911:	
  1211  03ED  2C1E               	goto	l4308
  1212  03EE                     u5910:	
  1213  03EE                     l4300:	
  1214                           
  1215                           ;Project Main.c: 73:                 _delay((unsigned long)((60)*(16000000UL/4000.0)));
  1216  03EE  3002               	movlw	2
  1217  03EF  1683               	bsf	3,5	;RP0=1, select bank1
  1218  03F0  1303               	bcf	3,6	;RP1=0, select bank1
  1219  03F1  00DF               	movwf	(??_main^(0+128)+2)
  1220  03F2  3038               	movlw	56
  1221  03F3  00DE               	movwf	(??_main^(0+128)+1)
  1222  03F4  30AC               	movlw	172
  1223  03F5  00DD               	movwf	??_main^(0+128)
  1224  03F6                     u6187:	
  1225  03F6  0BDD               	decfsz	??_main^(0+128),f
  1226  03F7  2BF6               	goto	u6187
  1227  03F8  0BDE               	decfsz	(??_main^(0+128)+1),f
  1228  03F9  2BF6               	goto	u6187
  1229  03FA  0BDF               	decfsz	(??_main^(0+128)+2),f
  1230  03FB  2BF6               	goto	u6187
  1231  03FC  0000               	nop
  1232  03FD                     l4302:	
  1233                           
  1234                           ;Project Main.c: 74:                 if(!PORTBbits.RB5){
  1235  03FD  1283               	bcf	3,5	;RP0=0, select bank0
  1236  03FE  1303               	bcf	3,6	;RP1=0, select bank0
  1237  03FF  1A86               	btfsc	6,5	;volatile
  1238  0400  2C02               	goto	u5921
  1239  0401  2C03               	goto	u5920
  1240  0402                     u5921:	
  1241  0402  2C1E               	goto	l4308
  1242  0403                     u5920:	
  1243  0403                     l299:	
  1244  0403  1E86               	btfss	6,5	;volatile
  1245  0404  2C06               	goto	u5931
  1246  0405  2C07               	goto	u5930
  1247  0406                     u5931:	
  1248  0406  2C03               	goto	l299
  1249  0407                     u5930:	
  1250  0407                     l4306:	
  1251                           
  1252                           ;Project Main.c: 76:                         _delay((unsigned long)((100)*(16000000UL/40
      +                          00.0)));
  1253  0407  3003               	movlw	3
  1254  0408  1683               	bsf	3,5	;RP0=1, select bank1
  1255  0409  1303               	bcf	3,6	;RP1=0, select bank1
  1256  040A  00DF               	movwf	(??_main^(0+128)+2)
  1257  040B  3008               	movlw	8
  1258  040C  00DE               	movwf	(??_main^(0+128)+1)
  1259  040D  3076               	movlw	118
  1260  040E  00DD               	movwf	??_main^(0+128)
  1261  040F                     u6197:	
  1262  040F  0BDD               	decfsz	??_main^(0+128),f
  1263  0410  2C0F               	goto	u6197
  1264  0411  0BDE               	decfsz	(??_main^(0+128)+1),f
  1265  0412  2C0F               	goto	u6197
  1266  0413  0BDF               	decfsz	(??_main^(0+128)+2),f
  1267  0414  2C0F               	goto	u6197
  1268  0415  0000               	nop
  1269                           
  1270                           ;Project Main.c: 77:                         STATEF=2;
  1271  0416  3002               	movlw	2
  1272  0417  1683               	bsf	3,5	;RP0=1, select bank1
  1273  0418  1303               	bcf	3,6	;RP1=0, select bank1
  1274  0419  00DD               	movwf	??_main^(0+128)
  1275  041A  085D               	movf	??_main^(0+128),w
  1276  041B  1283               	bcf	3,5	;RP0=0, select bank0
  1277  041C  1303               	bcf	3,6	;RP1=0, select bank0
  1278  041D  00EE               	movwf	_STATEF	;volatile
  1279  041E                     l4308:	
  1280                           
  1281                           ;Project Main.c: 81:             if(digit==2)
  1282  041E  3002               	movlw	2
  1283  041F  067B               	xorwf	_digit,w
  1284  0420  1D03               	btfss	3,2
  1285  0421  2C23               	goto	u5941
  1286  0422  2C24               	goto	u5940
  1287  0423                     u5941:	
  1288  0423  2C3A               	goto	l4316
  1289  0424                     u5940:	
  1290  0424                     l4310:	
  1291                           
  1292                           ;Project Main.c: 82:             {;Project Main.c: 83:                 ++digit;
  1293  0424  3001               	movlw	1
  1294  0425  1683               	bsf	3,5	;RP0=1, select bank1
  1295  0426  1303               	bcf	3,6	;RP1=0, select bank1
  1296  0427  00DD               	movwf	??_main^(0+128)
  1297  0428  085D               	movf	??_main^(0+128),w
  1298  0429  07FB               	addwf	_digit,f
  1299  042A                     l4312:	
  1300                           
  1301                           ;Project Main.c: 84:                 Move_Cursor_To(0,digit);
  1302  042A  087B               	movf	_digit,w
  1303  042B  00DD               	movwf	??_main^(0+128)
  1304  042C  085D               	movf	??_main^(0+128),w
  1305  042D  00F5               	movwf	Move_Cursor_To@L2
  1306  042E  3000               	movlw	0
  1307  042F  160A  118A  2654  120A  118A  	fcall	_Move_Cursor_To
  1308  0434                     l4314:	
  1309                           
  1310                           ;Project Main.c: 85:                 send_a_command(0x0F);
  1311  0434  300F               	movlw	15
  1312  0435  160A  118A  23E3  120A  118A  	fcall	_send_a_command
  1313  043A                     l4316:	
  1314                           
  1315                           ;Project Main.c: 87:             Key=0xFF;
  1316  043A  30FF               	movlw	255
  1317  043B  1683               	bsf	3,5	;RP0=1, select bank1
  1318  043C  1303               	bcf	3,6	;RP1=0, select bank1
  1319  043D  00DD               	movwf	??_main^(0+128)
  1320  043E  085D               	movf	??_main^(0+128),w
  1321  043F  00FA               	movwf	_Key
  1322  0440                     l4318:	
  1323                           
  1324                           ;Project Main.c: 88:             Key=GetKeyPressed();
  1325  0440  120A  158A  22DB  120A  118A  	fcall	_GetKeyPressed
  1326  0445  1683               	bsf	3,5	;RP0=1, select bank1
  1327  0446  1303               	bcf	3,6	;RP1=0, select bank1
  1328  0447  00DD               	movwf	??_main^(0+128)
  1329  0448  085D               	movf	??_main^(0+128),w
  1330  0449  00FA               	movwf	_Key
  1331  044A                     l4320:	
  1332                           
  1333                           ;Project Main.c: 89:             _delay((unsigned long)((5)*(16000000UL/4000.0)));
  1334  044A  301A               	movlw	26
  1335  044B  1683               	bsf	3,5	;RP0=1, select bank1
  1336  044C  1303               	bcf	3,6	;RP1=0, select bank1
  1337  044D  00DE               	movwf	(??_main^(0+128)+1)
  1338  044E  30F7               	movlw	247
  1339  044F  00DD               	movwf	??_main^(0+128)
  1340  0450                     u6207:	
  1341  0450  0BDD               	decfsz	??_main^(0+128),f
  1342  0451  2C50               	goto	u6207
  1343  0452  0BDE               	decfsz	(??_main^(0+128)+1),f
  1344  0453  2C50               	goto	u6207
  1345  0454  2C55               	nop2
  1346  0455                     l4322:	
  1347                           
  1348                           ;Project Main.c: 90:             if((Key<=0x3B) && (Key >=0x30) && (digit==3))
  1349  0455  303C               	movlw	60
  1350  0456  027A               	subwf	_Key,w
  1351  0457  1803               	skipnc
  1352  0458  2C5A               	goto	u5951
  1353  0459  2C5B               	goto	u5950
  1354  045A                     u5951:	
  1355  045A  2C91               	goto	l4340
  1356  045B                     u5950:	
  1357  045B                     l4324:	
  1358  045B  3030               	movlw	48
  1359  045C  027A               	subwf	_Key,w
  1360  045D  1C03               	skipc
  1361  045E  2C60               	goto	u5961
  1362  045F  2C61               	goto	u5960
  1363  0460                     u5961:	
  1364  0460  2C91               	goto	l4340
  1365  0461                     u5960:	
  1366  0461                     l4326:	
  1367  0461  3003               	movlw	3
  1368  0462  067B               	xorwf	_digit,w
  1369  0463  1D03               	btfss	3,2
  1370  0464  2C66               	goto	u5971
  1371  0465  2C67               	goto	u5970
  1372  0466                     u5971:	
  1373  0466  2C91               	goto	l4340
  1374  0467                     u5970:	
  1375  0467                     l4328:	
  1376                           
  1377                           ;Project Main.c: 91:             {;Project Main.c: 92:                 if(Key>=0x36)
  1378  0467  3036               	movlw	54
  1379  0468  027A               	subwf	_Key,w
  1380  0469  1C03               	skipc
  1381  046A  2C6C               	goto	u5981
  1382  046B  2C6D               	goto	u5980
  1383  046C                     u5981:	
  1384  046C  2C7C               	goto	l4334
  1385  046D                     u5980:	
  1386  046D                     l4330:	
  1387                           
  1388                           ;Project Main.c: 93:                 {;Project Main.c: 94:                     TIME[digi
      +                          t]=0x35;
  1389  046D  3035               	movlw	53
  1390  046E  1683               	bsf	3,5	;RP0=1, select bank1
  1391  046F  1303               	bcf	3,6	;RP1=0, select bank1
  1392  0470  00DD               	movwf	??_main^(0+128)
  1393  0471  087B               	movf	_digit,w
  1394  0472  3ED7               	addlw	(low (_TIME| 0))& (0+255)
  1395  0473  0084               	movwf	4
  1396  0474  085D               	movf	??_main^(0+128),w
  1397  0475  1383               	bcf	3,7	;select IRP bank1
  1398  0476  0080               	movwf	0
  1399  0477                     l4332:	
  1400                           
  1401                           ;Project Main.c: 95:                     Key=0x35;
  1402  0477  3035               	movlw	53
  1403  0478  00DD               	movwf	??_main^(0+128)
  1404  0479  085D               	movf	??_main^(0+128),w
  1405  047A  00FA               	movwf	_Key
  1406                           
  1407                           ;Project Main.c: 96:                 }
  1408  047B  2C86               	goto	l4336
  1409  047C                     l4334:	
  1410                           
  1411                           ;Project Main.c: 98:                 {;Project Main.c: 99:                     TIME[digi
      +                          t]=Key;
  1412  047C  087A               	movf	_Key,w
  1413  047D  1683               	bsf	3,5	;RP0=1, select bank1
  1414  047E  1303               	bcf	3,6	;RP1=0, select bank1
  1415  047F  00DD               	movwf	??_main^(0+128)
  1416  0480  087B               	movf	_digit,w
  1417  0481  3ED7               	addlw	(low (_TIME| 0))& (0+255)
  1418  0482  0084               	movwf	4
  1419  0483  085D               	movf	??_main^(0+128),w
  1420  0484  1383               	bcf	3,7	;select IRP bank1
  1421  0485  0080               	movwf	0
  1422  0486                     l4336:	
  1423                           
  1424                           ;Project Main.c: 101:             digit++;
  1425  0486  3001               	movlw	1
  1426  0487  00DD               	movwf	??_main^(0+128)
  1427  0488  085D               	movf	??_main^(0+128),w
  1428  0489  07FB               	addwf	_digit,f
  1429  048A                     l4338:	
  1430                           
  1431                           ;Project Main.c: 102:             LCD_Print_Hex(Key);
  1432  048A  087A               	movf	_Key,w
  1433  048B  160A  118A  240E  120A  118A  	fcall	_LCD_Print_Hex
  1434                           
  1435                           ;Project Main.c: 103:             }
  1436  0490  2D36               	goto	l4390
  1437  0491                     l4340:	
  1438  0491  303C               	movlw	60
  1439  0492  027A               	subwf	_Key,w
  1440  0493  1803               	skipnc
  1441  0494  2C96               	goto	u5991
  1442  0495  2C97               	goto	u5990
  1443  0496                     u5991:	
  1444  0496  2CB2               	goto	l4350
  1445  0497                     u5990:	
  1446  0497                     l4342:	
  1447  0497  3030               	movlw	48
  1448  0498  027A               	subwf	_Key,w
  1449  0499  1C03               	skipc
  1450  049A  2C9C               	goto	u6001
  1451  049B  2C9D               	goto	u6000
  1452  049C                     u6001:	
  1453  049C  2CB2               	goto	l4350
  1454  049D                     u6000:	
  1455  049D                     l4344:	
  1456                           
  1457                           ;Project Main.c: 105:             {;Project Main.c: 106:                 TIME[digit]=Key
      +                          ;
  1458  049D  087A               	movf	_Key,w
  1459  049E  1683               	bsf	3,5	;RP0=1, select bank1
  1460  049F  1303               	bcf	3,6	;RP1=0, select bank1
  1461  04A0  00DD               	movwf	??_main^(0+128)
  1462  04A1  087B               	movf	_digit,w
  1463  04A2  3ED7               	addlw	(low (_TIME| 0))& (0+255)
  1464  04A3  0084               	movwf	4
  1465  04A4  085D               	movf	??_main^(0+128),w
  1466  04A5  1383               	bcf	3,7	;select IRP bank1
  1467  04A6  0080               	movwf	0
  1468  04A7                     l4346:	
  1469                           
  1470                           ;Project Main.c: 107:                 digit++;
  1471  04A7  3001               	movlw	1
  1472  04A8  00DD               	movwf	??_main^(0+128)
  1473  04A9  085D               	movf	??_main^(0+128),w
  1474  04AA  07FB               	addwf	_digit,f
  1475  04AB                     l4348:	
  1476                           
  1477                           ;Project Main.c: 108:                 LCD_Print_Hex(Key);
  1478  04AB  087A               	movf	_Key,w
  1479  04AC  160A  118A  240E  120A  118A  	fcall	_LCD_Print_Hex
  1480                           
  1481                           ;Project Main.c: 109:             }
  1482  04B1  2D36               	goto	l4390
  1483  04B2                     l4350:	
  1484  04B2  037A               	decf	_Key,w
  1485  04B3  1D03               	btfss	3,2
  1486  04B4  2CB6               	goto	u6011
  1487  04B5  2CB7               	goto	u6010
  1488  04B6                     u6011:	
  1489  04B6  2CF3               	goto	l4368
  1490  04B7                     u6010:	
  1491  04B7                     l4352:	
  1492                           
  1493                           ;Project Main.c: 111:             {;Project Main.c: 112:                digit--;
  1494  04B7  3001               	movlw	1
  1495  04B8  02FB               	subwf	_digit,f
  1496                           
  1497                           ;Project Main.c: 113:                if(digit==0xFF)
  1498  04B9  0A7B               	incf	_digit,w
  1499  04BA  1D03               	btfss	3,2
  1500  04BB  2CBD               	goto	u6021
  1501  04BC  2CBE               	goto	u6020
  1502  04BD                     u6021:	
  1503  04BD  2CD5               	goto	l4360
  1504  04BE                     u6020:	
  1505  04BE                     l4354:	
  1506                           
  1507                           ;Project Main.c: 114:                 {;Project Main.c: 115:                    digit=4;
  1508  04BE  3004               	movlw	4
  1509  04BF  1683               	bsf	3,5	;RP0=1, select bank1
  1510  04C0  1303               	bcf	3,6	;RP1=0, select bank1
  1511  04C1  00DD               	movwf	??_main^(0+128)
  1512  04C2  085D               	movf	??_main^(0+128),w
  1513  04C3  00FB               	movwf	_digit
  1514  04C4                     l4356:	
  1515                           
  1516                           ;Project Main.c: 116:                    Move_Cursor_To(0,digit);
  1517  04C4  3004               	movlw	4
  1518  04C5  00DD               	movwf	??_main^(0+128)
  1519  04C6  085D               	movf	??_main^(0+128),w
  1520  04C7  00F5               	movwf	Move_Cursor_To@L2
  1521  04C8  3000               	movlw	0
  1522  04C9  160A  118A  2654  120A  118A  	fcall	_Move_Cursor_To
  1523  04CE                     l4358:	
  1524                           
  1525                           ;Project Main.c: 117:                    send_a_command(0x0F);
  1526  04CE  300F               	movlw	15
  1527  04CF  160A  118A  23E3  120A  118A  	fcall	_send_a_command
  1528                           
  1529                           ;Project Main.c: 118:                 }
  1530  04D4  2D36               	goto	l4390
  1531  04D5                     l4360:	
  1532  04D5  3002               	movlw	2
  1533  04D6  067B               	xorwf	_digit,w
  1534  04D7  1D03               	btfss	3,2
  1535  04D8  2CDA               	goto	u6031
  1536  04D9  2CDB               	goto	u6030
  1537  04DA                     u6031:	
  1538  04DA  2CEC               	goto	l4366
  1539  04DB                     u6030:	
  1540  04DB                     l4362:	
  1541                           
  1542                           ;Project Main.c: 120:                 {;Project Main.c: 121:                    digit=1;
  1543  04DB  01FB               	clrf	_digit
  1544  04DC  0AFB               	incf	_digit,f
  1545  04DD                     l4364:	
  1546                           
  1547                           ;Project Main.c: 122:                    Move_Cursor_To(0,digit);
  1548  04DD  01F5               	clrf	Move_Cursor_To@L2
  1549  04DE  0AF5               	incf	Move_Cursor_To@L2,f
  1550  04DF  3000               	movlw	0
  1551  04E0  160A  118A  2654  120A  118A  	fcall	_Move_Cursor_To
  1552                           
  1553                           ;Project Main.c: 123:                    send_a_command(0x0F);
  1554  04E5  300F               	movlw	15
  1555  04E6  160A  118A  23E3  120A  118A  	fcall	_send_a_command
  1556                           
  1557                           ;Project Main.c: 124:                 }
  1558  04EB  2D36               	goto	l4390
  1559  04EC                     l4366:	
  1560                           
  1561                           ;Project Main.c: 126:                 {;Project Main.c: 127:                     Move_Cu
      +                          rsor_L(1);
  1562  04EC  3001               	movlw	1
  1563  04ED  160A  118A  25CC  120A  118A  	fcall	_Move_Cursor_L
  1564  04F2  2D36               	goto	l4390
  1565  04F3                     l4368:	
  1566  04F3  3002               	movlw	2
  1567  04F4  067A               	xorwf	_Key,w
  1568  04F5  1D03               	btfss	3,2
  1569  04F6  2CF8               	goto	u6041
  1570  04F7  2CF9               	goto	u6040
  1571  04F8                     u6041:	
  1572  04F8  2D36               	goto	l308
  1573  04F9                     u6040:	
  1574  04F9                     l4370:	
  1575                           
  1576                           ;Project Main.c: 131:             {;Project Main.c: 132:                 digit++;
  1577  04F9  3001               	movlw	1
  1578  04FA  1683               	bsf	3,5	;RP0=1, select bank1
  1579  04FB  1303               	bcf	3,6	;RP1=0, select bank1
  1580  04FC  00DD               	movwf	??_main^(0+128)
  1581  04FD  085D               	movf	??_main^(0+128),w
  1582  04FE  07FB               	addwf	_digit,f
  1583  04FF                     l4372:	
  1584                           
  1585                           ;Project Main.c: 133:                 if(digit>=5)
  1586  04FF  3005               	movlw	5
  1587  0500  027B               	subwf	_digit,w
  1588  0501  1C03               	skipc
  1589  0502  2D04               	goto	u6051
  1590  0503  2D05               	goto	u6050
  1591  0504                     u6051:	
  1592  0504  2D14               	goto	l4380
  1593  0505                     u6050:	
  1594  0505                     l4374:	
  1595                           
  1596                           ;Project Main.c: 134:                 {;Project Main.c: 135:                     digit=0
      +                          ;
  1597  0505  01FB               	clrf	_digit
  1598  0506                     l4376:	
  1599                           
  1600                           ;Project Main.c: 136:                     Move_Cursor_To(0,digit);
  1601  0506  01F5               	clrf	Move_Cursor_To@L2
  1602  0507  3000               	movlw	0
  1603  0508  160A  118A  2654  120A  118A  	fcall	_Move_Cursor_To
  1604  050D                     l4378:	
  1605                           
  1606                           ;Project Main.c: 137:                     send_a_command(0x0F);
  1607  050D  300F               	movlw	15
  1608  050E  160A  118A  23E3  120A  118A  	fcall	_send_a_command
  1609                           
  1610                           ;Project Main.c: 138:                 }
  1611  0513  2D36               	goto	l4390
  1612  0514                     l4380:	
  1613  0514  3002               	movlw	2
  1614  0515  067B               	xorwf	_digit,w
  1615  0516  1D03               	btfss	3,2
  1616  0517  2D19               	goto	u6061
  1617  0518  2D1A               	goto	u6060
  1618  0519                     u6061:	
  1619  0519  2D2F               	goto	l4388
  1620  051A                     u6060:	
  1621  051A                     l4382:	
  1622                           
  1623                           ;Project Main.c: 140:                  {;Project Main.c: 141:                      digit
      +                          =3;
  1624  051A  3003               	movlw	3
  1625  051B  00DD               	movwf	??_main^(0+128)
  1626  051C  085D               	movf	??_main^(0+128),w
  1627  051D  00FB               	movwf	_digit
  1628  051E                     l4384:	
  1629                           
  1630                           ;Project Main.c: 142:                      Move_Cursor_To(0,digit);
  1631  051E  3003               	movlw	3
  1632  051F  00DD               	movwf	??_main^(0+128)
  1633  0520  085D               	movf	??_main^(0+128),w
  1634  0521  00F5               	movwf	Move_Cursor_To@L2
  1635  0522  3000               	movlw	0
  1636  0523  160A  118A  2654  120A  118A  	fcall	_Move_Cursor_To
  1637  0528                     l4386:	
  1638                           
  1639                           ;Project Main.c: 143:                      send_a_command(0x0F);
  1640  0528  300F               	movlw	15
  1641  0529  160A  118A  23E3  120A  118A  	fcall	_send_a_command
  1642                           
  1643                           ;Project Main.c: 144:                   }
  1644  052E  2D36               	goto	l4390
  1645  052F                     l4388:	
  1646                           
  1647                           ;Project Main.c: 146:                  {;Project Main.c: 147:                     Move_C
      +                          ursor_R(1);
  1648  052F  3001               	movlw	1
  1649  0530  160A  118A  2610  120A  118A  	fcall	_Move_Cursor_R
  1650  0535  2D36               	goto	l4390
  1651  0536                     l308:	
  1652  0536                     l4390:	
  1653                           
  1654                           ;Project Main.c: 152:             Key=0xFF;
  1655  0536  30FF               	movlw	255
  1656  0537  1683               	bsf	3,5	;RP0=1, select bank1
  1657  0538  1303               	bcf	3,6	;RP1=0, select bank1
  1658  0539  00DD               	movwf	??_main^(0+128)
  1659  053A  085D               	movf	??_main^(0+128),w
  1660  053B  00FA               	movwf	_Key
  1661                           
  1662                           ;Project Main.c: 154:             if(digit>=5)
  1663  053C  3005               	movlw	5
  1664  053D  027B               	subwf	_digit,w
  1665  053E  1C03               	skipc
  1666  053F  2D41               	goto	u6071
  1667  0540  2D42               	goto	u6070
  1668  0541                     u6071:	
  1669  0541  2D50               	goto	l4398
  1670  0542                     u6070:	
  1671  0542                     l4392:	
  1672                           
  1673                           ;Project Main.c: 155:             {;Project Main.c: 156:                digit=0;
  1674  0542  01FB               	clrf	_digit
  1675  0543                     l4394:	
  1676                           
  1677                           ;Project Main.c: 157:                Move_Cursor_To(0,digit);
  1678  0543  01F5               	clrf	Move_Cursor_To@L2
  1679  0544  3000               	movlw	0
  1680  0545  160A  118A  2654  120A  118A  	fcall	_Move_Cursor_To
  1681  054A                     l4396:	
  1682                           
  1683                           ;Project Main.c: 158:                send_a_command(0x0F);
  1684  054A  300F               	movlw	15
  1685  054B  160A  118A  23E3  120A  118A  	fcall	_send_a_command
  1686  0550                     l4398:	
  1687                           
  1688                           ;Project Main.c: 63:         while((digit<5)&&(STATEF<=1))
  1689  0550  3005               	movlw	5
  1690  0551  027B               	subwf	_digit,w
  1691  0552  1803               	skipnc
  1692  0553  2D55               	goto	u6081
  1693  0554  2D56               	goto	u6080
  1694  0555                     u6081:	
  1695  0555  2DC0               	goto	l325
  1696  0556                     u6080:	
  1697  0556                     l4400:	
  1698  0556  3002               	movlw	2
  1699  0557  1283               	bcf	3,5	;RP0=0, select bank0
  1700  0558  1303               	bcf	3,6	;RP1=0, select bank0
  1701  0559  026E               	subwf	_STATEF,w	;volatile
  1702  055A  1C03               	skipc
  1703  055B  2D5D               	goto	u6091
  1704  055C  2D5E               	goto	u6090
  1705  055D                     u6091:	
  1706  055D  2BD0               	goto	l4288
  1707  055E                     u6090:	
  1708  055E  2DC0               	goto	l325
  1709  055F                     l4402:	
  1710                           
  1711                           ;Project Main.c: 166:         {;Project Main.c: 167:             DOORSTATE();
  1712  055F  160A  118A  258C  120A  118A  	fcall	_DOORSTATE
  1713  0564                     l4404:	
  1714                           
  1715                           ;Project Main.c: 168:             if(STATEF==2)
  1716  0564  3002               	movlw	2
  1717  0565  1283               	bcf	3,5	;RP0=0, select bank0
  1718  0566  1303               	bcf	3,6	;RP1=0, select bank0
  1719  0567  066E               	xorwf	_STATEF,w	;volatile
  1720  0568  1D03               	btfss	3,2
  1721  0569  2D6B               	goto	u6101
  1722  056A  2D6C               	goto	u6100
  1723  056B                     u6101:	
  1724  056B  2D76               	goto	l4410
  1725  056C                     u6100:	
  1726  056C                     l4406:	
  1727                           
  1728                           ;Project Main.c: 169:             {;Project Main.c: 170:                 lcd_init();
  1729  056C  160A  118A  24A4  120A  118A  	fcall	_lcd_init
  1730  0571                     l4408:	
  1731                           
  1732                           ;Project Main.c: 171:                 SETHEAT_LCD();
  1733  0571  120A  158A  20D5  120A  118A  	fcall	_SETHEAT_LCD
  1734  0576                     l4410:	
  1735                           
  1736                           ;Project Main.c: 173:             STATEF=3;
  1737  0576  3003               	movlw	3
  1738  0577  1683               	bsf	3,5	;RP0=1, select bank1
  1739  0578  1303               	bcf	3,6	;RP1=0, select bank1
  1740  0579  00DD               	movwf	??_main^(0+128)
  1741  057A  085D               	movf	??_main^(0+128),w
  1742  057B  1283               	bcf	3,5	;RP0=0, select bank0
  1743  057C  1303               	bcf	3,6	;RP1=0, select bank0
  1744  057D  00EE               	movwf	_STATEF	;volatile
  1745  057E                     l4412:	
  1746                           
  1747                           ;Project Main.c: 175:             ADC_Read(Temp);
  1748  057E  30EB               	movlw	(low (_Temp| 0))& (0+255)
  1749  057F  120A  118A  2696  120A  118A  	fcall	_ADC_Read
  1750  0584                     l4414:	
  1751                           
  1752                           ;Project Main.c: 176:             ADC_LCD(Temp);
  1753  0584  30EB               	movlw	(low (_Temp| 0))& (0+255)
  1754  0585  160A  118A  2727  120A  118A  	fcall	_ADC_LCD
  1755  058A                     l4416:	
  1756                           
  1757                           ;Project Main.c: 178:             if(!PORTBbits.RB5){
  1758  058A  1283               	bcf	3,5	;RP0=0, select bank0
  1759  058B  1303               	bcf	3,6	;RP1=0, select bank0
  1760  058C  1A86               	btfsc	6,5	;volatile
  1761  058D  2D8F               	goto	u6111
  1762  058E  2D90               	goto	u6110
  1763  058F                     u6111:	
  1764  058F  2DC0               	goto	l325
  1765  0590                     u6110:	
  1766  0590                     l4418:	
  1767                           
  1768                           ;Project Main.c: 179:                 _delay((unsigned long)((60)*(16000000UL/4000.0)));
  1769  0590  3002               	movlw	2
  1770  0591  1683               	bsf	3,5	;RP0=1, select bank1
  1771  0592  1303               	bcf	3,6	;RP1=0, select bank1
  1772  0593  00DF               	movwf	(??_main^(0+128)+2)
  1773  0594  3038               	movlw	56
  1774  0595  00DE               	movwf	(??_main^(0+128)+1)
  1775  0596  30AC               	movlw	172
  1776  0597  00DD               	movwf	??_main^(0+128)
  1777  0598                     u6217:	
  1778  0598  0BDD               	decfsz	??_main^(0+128),f
  1779  0599  2D98               	goto	u6217
  1780  059A  0BDE               	decfsz	(??_main^(0+128)+1),f
  1781  059B  2D98               	goto	u6217
  1782  059C  0BDF               	decfsz	(??_main^(0+128)+2),f
  1783  059D  2D98               	goto	u6217
  1784  059E  0000               	nop
  1785  059F                     l4420:	
  1786                           
  1787                           ;Project Main.c: 180:                 if(!PORTBbits.RB5)
  1788  059F  1283               	bcf	3,5	;RP0=0, select bank0
  1789  05A0  1303               	bcf	3,6	;RP1=0, select bank0
  1790  05A1  1A86               	btfsc	6,5	;volatile
  1791  05A2  2DA4               	goto	u6121
  1792  05A3  2DA5               	goto	u6120
  1793  05A4                     u6121:	
  1794  05A4  2DC0               	goto	l325
  1795  05A5                     u6120:	
  1796  05A5                     l330:	
  1797  05A5  1E86               	btfss	6,5	;volatile
  1798  05A6  2DA8               	goto	u6131
  1799  05A7  2DA9               	goto	u6130
  1800  05A8                     u6131:	
  1801  05A8  2DA5               	goto	l330
  1802  05A9                     u6130:	
  1803  05A9                     l4424:	
  1804                           
  1805                           ;Project Main.c: 183:                     _delay((unsigned long)((100)*(16000000UL/4000.
      +                          0)));
  1806  05A9  3003               	movlw	3
  1807  05AA  1683               	bsf	3,5	;RP0=1, select bank1
  1808  05AB  1303               	bcf	3,6	;RP1=0, select bank1
  1809  05AC  00DF               	movwf	(??_main^(0+128)+2)
  1810  05AD  3008               	movlw	8
  1811  05AE  00DE               	movwf	(??_main^(0+128)+1)
  1812  05AF  3076               	movlw	118
  1813  05B0  00DD               	movwf	??_main^(0+128)
  1814  05B1                     u6227:	
  1815  05B1  0BDD               	decfsz	??_main^(0+128),f
  1816  05B2  2DB1               	goto	u6227
  1817  05B3  0BDE               	decfsz	(??_main^(0+128)+1),f
  1818  05B4  2DB1               	goto	u6227
  1819  05B5  0BDF               	decfsz	(??_main^(0+128)+2),f
  1820  05B6  2DB1               	goto	u6227
  1821  05B7  0000               	nop
  1822                           
  1823                           ;Project Main.c: 184:                     STATEF=4;
  1824  05B8  3004               	movlw	4
  1825  05B9  1683               	bsf	3,5	;RP0=1, select bank1
  1826  05BA  1303               	bcf	3,6	;RP1=0, select bank1
  1827  05BB  00DD               	movwf	??_main^(0+128)
  1828  05BC  085D               	movf	??_main^(0+128),w
  1829  05BD  1283               	bcf	3,5	;RP0=0, select bank0
  1830  05BE  1303               	bcf	3,6	;RP1=0, select bank0
  1831  05BF  00EE               	movwf	_STATEF	;volatile
  1832  05C0                     l325:	
  1833                           ;Project Main.c: 187:         }
  1834                           
  1835                           
  1836                           ;Project Main.c: 165:         while (STATEF<=3)
  1837  05C0  3004               	movlw	4
  1838  05C1  1283               	bcf	3,5	;RP0=0, select bank0
  1839  05C2  1303               	bcf	3,6	;RP1=0, select bank0
  1840  05C3  026E               	subwf	_STATEF,w	;volatile
  1841  05C4  1C03               	skipc
  1842  05C5  2DC7               	goto	u6141
  1843  05C6  2DC8               	goto	u6140
  1844  05C7                     u6141:	
  1845  05C7  2D5F               	goto	l4402
  1846  05C8                     u6140:	
  1847  05C8                     l4426:	
  1848                           
  1849                           ;Project Main.c: 189:         TIMEinSec=(((TIME[0]-0x30)*600)+((TIME[1]-0x30)*60)+((TIME
      +                          [3]-0x30)*10)+((TIME[4]-0x30)));
  1850  05C8  1683               	bsf	3,5	;RP0=1, select bank1
  1851  05C9  1303               	bcf	3,6	;RP1=0, select bank1
  1852  05CA  0857               	movf	_TIME^(0+128),w
  1853  05CB  00DD               	movwf	??_main^(0+128)
  1854  05CC  01DE               	clrf	(??_main^(0+128)+1)
  1855  05CD  085D               	movf	??_main^(0+128),w
  1856  05CE  00F2               	movwf	___wmul@multiplier
  1857  05CF  085E               	movf	(??_main+1)^(0+128),w
  1858  05D0  00F3               	movwf	___wmul@multiplier+1
  1859  05D1  3058               	movlw	88
  1860  05D2  00F4               	movwf	___wmul@multiplicand
  1861  05D3  3002               	movlw	2
  1862  05D4  00F5               	movwf	___wmul@multiplicand+1
  1863  05D5  160A  118A  2456  120A  118A  	fcall	___wmul
  1864  05DA  0872               	movf	?___wmul,w
  1865  05DB  1683               	bsf	3,5	;RP0=1, select bank1
  1866  05DC  1303               	bcf	3,6	;RP1=0, select bank1
  1867  05DD  00DF               	movwf	(??_main+2)^(0+128)
  1868  05DE  0873               	movf	?___wmul+1,w
  1869  05DF  00E0               	movwf	((??_main+2)^(0+128)+1)
  1870  05E0  0858               	movf	(_TIME^(0+128)+1),w
  1871  05E1  00E1               	movwf	(??_main+4)^(0+128)
  1872  05E2  01E2               	clrf	((??_main+4)^(0+128)+1)
  1873  05E3  0861               	movf	(??_main+4)^(0+128),w
  1874  05E4  00F2               	movwf	___wmul@multiplier
  1875  05E5  0862               	movf	(??_main+5)^(0+128),w
  1876  05E6  00F3               	movwf	___wmul@multiplier+1
  1877  05E7  303C               	movlw	60
  1878  05E8  00F4               	movwf	___wmul@multiplicand
  1879  05E9  3000               	movlw	0
  1880  05EA  00F5               	movwf	___wmul@multiplicand+1
  1881  05EB  160A  118A  2456  120A  118A  	fcall	___wmul
  1882  05F0  0872               	movf	?___wmul,w
  1883  05F1  1683               	bsf	3,5	;RP0=1, select bank1
  1884  05F2  1303               	bcf	3,6	;RP1=0, select bank1
  1885  05F3  075F               	addwf	(??_main+2)^(0+128),w
  1886  05F4  00E3               	movwf	(??_main+6)^(0+128)
  1887  05F5  0873               	movf	?___wmul+1,w
  1888  05F6  1803               	skipnc
  1889  05F7  0A73               	incf	?___wmul+1,w
  1890  05F8  0760               	addwf	(??_main+3)^(0+128),w
  1891  05F9  00E4               	movwf	(??_main+7)^(0+128)
  1892  05FA  085A               	movf	(_TIME^(0+128)+3),w
  1893  05FB  00E5               	movwf	(??_main+8)^(0+128)
  1894  05FC  01E6               	clrf	((??_main+8)^(0+128)+1)
  1895  05FD  0865               	movf	(??_main+8)^(0+128),w
  1896  05FE  00F2               	movwf	___wmul@multiplier
  1897  05FF  0866               	movf	(??_main+9)^(0+128),w
  1898  0600  00F3               	movwf	___wmul@multiplier+1
  1899  0601  300A               	movlw	10
  1900  0602  00F4               	movwf	___wmul@multiplicand
  1901  0603  3000               	movlw	0
  1902  0604  00F5               	movwf	___wmul@multiplicand+1
  1903  0605  160A  118A  2456  120A  118A  	fcall	___wmul
  1904  060A  0872               	movf	?___wmul,w
  1905  060B  1683               	bsf	3,5	;RP0=1, select bank1
  1906  060C  1303               	bcf	3,6	;RP1=0, select bank1
  1907  060D  0763               	addwf	(??_main+6)^(0+128),w
  1908  060E  00E7               	movwf	(??_main+10)^(0+128)
  1909  060F  0873               	movf	?___wmul+1,w
  1910  0610  1803               	skipnc
  1911  0611  0A73               	incf	?___wmul+1,w
  1912  0612  0764               	addwf	(??_main+7)^(0+128),w
  1913  0613  00E8               	movwf	(??_main+11)^(0+128)
  1914  0614  085B               	movf	(_TIME^(0+128)+4),w
  1915  0615  0767               	addwf	(??_main+10)^(0+128),w
  1916  0616  00E9               	movwf	(??_main+12)^(0+128)
  1917  0617  3000               	movlw	0
  1918  0618  1803               	skipnc
  1919  0619  3001               	movlw	1
  1920  061A  0768               	addwf	(??_main+11)^(0+128),w
  1921  061B  00EA               	movwf	(??_main+13)^(0+128)
  1922  061C  0869               	movf	(??_main+12)^(0+128),w
  1923  061D  3E30               	addlw	48
  1924  061E  1283               	bcf	3,5	;RP0=0, select bank0
  1925  061F  1303               	bcf	3,6	;RP1=0, select bank0
  1926  0620  00E8               	movwf	_TIMEinSec
  1927  0621  1683               	bsf	3,5	;RP0=1, select bank1
  1928  0622  1303               	bcf	3,6	;RP1=0, select bank1
  1929  0623  086A               	movf	(??_main+13)^(0+128),w
  1930  0624  1803               	skipnc
  1931  0625  3E01               	addlw	1
  1932  0626  3E82               	addlw	130
  1933  0627  1283               	bcf	3,5	;RP0=0, select bank0
  1934  0628  1303               	bcf	3,6	;RP1=0, select bank0
  1935  0629  00E9               	movwf	_TIMEinSec+1
  1936  062A                     l4428:	
  1937                           
  1938                           ;Project Main.c: 191:         if(TIMEinSec>=10)
  1939  062A  3000               	movlw	0
  1940  062B  0269               	subwf	_TIMEinSec+1,w
  1941  062C  300A               	movlw	10
  1942  062D  1903               	skipnz
  1943  062E  0268               	subwf	_TIMEinSec,w
  1944  062F  1C03               	skipc
  1945  0630  2E32               	goto	u6151
  1946  0631  2E33               	goto	u6150
  1947  0632                     u6151:	
  1948  0632  2E45               	goto	l4432
  1949  0633                     u6150:	
  1950  0633                     l4430:	
  1951                           
  1952                           ;Project Main.c: 192:         {;Project Main.c: 193:         ONStatus(TIMEinSec,Temp);
  1953  0633  0869               	movf	_TIMEinSec+1,w
  1954  0634  00A8               	movwf	ONStatus@Time+1
  1955  0635  0868               	movf	_TIMEinSec,w
  1956  0636  00A7               	movwf	ONStatus@Time
  1957  0637  30EB               	movlw	(low (_Temp| 0))& (0+255)
  1958  0638  1683               	bsf	3,5	;RP0=1, select bank1
  1959  0639  1303               	bcf	3,6	;RP1=0, select bank1
  1960  063A  00DD               	movwf	??_main^(0+128)
  1961  063B  085D               	movf	??_main^(0+128),w
  1962  063C  1283               	bcf	3,5	;RP0=0, select bank0
  1963  063D  1303               	bcf	3,6	;RP1=0, select bank0
  1964  063E  00A9               	movwf	ONStatus@ptrTemp
  1965  063F  120A  158A  23AC  120A  118A  	fcall	_ONStatus
  1966                           
  1967                           ;Project Main.c: 194:         }
  1968  0644  2D50               	goto	l4398
  1969  0645                     l4432:	
  1970  0645  3004               	movlw	4
  1971  0646  066E               	xorwf	_STATEF,w	;volatile
  1972  0647  1D03               	btfss	3,2
  1973  0648  2E4A               	goto	u6161
  1974  0649  2E4B               	goto	u6160
  1975  064A                     u6161:	
  1976  064A  2E92               	goto	l335
  1977  064B                     u6160:	
  1978  064B                     l4434:	
  1979                           
  1980                           ;Project Main.c: 196:         {;Project Main.c: 197:             lcd_init();
  1981  064B  160A  118A  24A4  120A  118A  	fcall	_lcd_init
  1982  0650                     l4436:	
  1983                           
  1984                           ;Project Main.c: 198:             PrintLINE1(0,13,"Time is Small");
  1985  0650  300D               	movlw	13
  1986  0651  1683               	bsf	3,5	;RP0=1, select bank1
  1987  0652  1303               	bcf	3,6	;RP1=0, select bank1
  1988  0653  00DD               	movwf	??_main^(0+128)
  1989  0654  085D               	movf	??_main^(0+128),w
  1990  0655  00F5               	movwf	PrintLINE1@length
  1991  0656  302D               	movlw	(low ((STR_8-__stringbase)| (0+32768)))& (0+255)
  1992  0657  00DE               	movwf	(??_main+1)^(0+128)
  1993  0658  085E               	movf	(??_main+1)^(0+128),w
  1994  0659  00F6               	movwf	PrintLINE1@ptrSTR
  1995  065A  3000               	movlw	0
  1996  065B  160A  118A  26DE  120A  118A  	fcall	_PrintLINE1
  1997  0660                     l4438:	
  1998                           
  1999                           ;Project Main.c: 199:             PrintLINE2(0,16,"<ReEnter time>");
  2000  0660  3010               	movlw	16
  2001  0661  1683               	bsf	3,5	;RP0=1, select bank1
  2002  0662  1303               	bcf	3,6	;RP1=0, select bank1
  2003  0663  00DD               	movwf	??_main^(0+128)
  2004  0664  085D               	movf	??_main^(0+128),w
  2005  0665  00F5               	movwf	PrintLINE2@length
  2006  0666  3001               	movlw	(low ((STR_9-__stringbase)| (0+32768)))& (0+255)
  2007  0667  00DE               	movwf	(??_main+1)^(0+128)
  2008  0668  085E               	movf	(??_main+1)^(0+128),w
  2009  0669  00F6               	movwf	PrintLINE2@ptrSTR
  2010  066A  3000               	movlw	0
  2011  066B  120A  158A  2002  120A  118A  	fcall	_PrintLINE2
  2012  0670                     l4440:	
  2013                           
  2014                           ;Project Main.c: 200:             STATEF=0;
  2015  0670  1283               	bcf	3,5	;RP0=0, select bank0
  2016  0671  1303               	bcf	3,6	;RP1=0, select bank0
  2017  0672  01EE               	clrf	_STATEF	;volatile
  2018  0673                     l4442:	
  2019                           
  2020                           ;Project Main.c: 201:             _delay((unsigned long)((2000)*(16000000UL/4000.0)));
  2021  0673  3029               	movlw	41
  2022  0674  1683               	bsf	3,5	;RP0=1, select bank1
  2023  0675  1303               	bcf	3,6	;RP1=0, select bank1
  2024  0676  00DF               	movwf	(??_main^(0+128)+2)
  2025  0677  3096               	movlw	150
  2026  0678  00DE               	movwf	(??_main^(0+128)+1)
  2027  0679  307E               	movlw	126
  2028  067A  00DD               	movwf	??_main^(0+128)
  2029  067B                     u6237:	
  2030  067B  0BDD               	decfsz	??_main^(0+128),f
  2031  067C  2E7B               	goto	u6237
  2032  067D  0BDE               	decfsz	(??_main^(0+128)+1),f
  2033  067E  2E7B               	goto	u6237
  2034  067F  0BDF               	decfsz	(??_main^(0+128)+2),f
  2035  0680  2E7B               	goto	u6237
  2036  0681  0000               	nop
  2037  0682                     l4444:	
  2038                           
  2039                           ;Project Main.c: 202:             _delay((unsigned long)((2000)*(16000000UL/4000.0)));
  2040  0682  3029               	movlw	41
  2041  0683  1683               	bsf	3,5	;RP0=1, select bank1
  2042  0684  1303               	bcf	3,6	;RP1=0, select bank1
  2043  0685  00DF               	movwf	(??_main^(0+128)+2)
  2044  0686  3096               	movlw	150
  2045  0687  00DE               	movwf	(??_main^(0+128)+1)
  2046  0688  307E               	movlw	126
  2047  0689  00DD               	movwf	??_main^(0+128)
  2048  068A                     u6247:	
  2049  068A  0BDD               	decfsz	??_main^(0+128),f
  2050  068B  2E8A               	goto	u6247
  2051  068C  0BDE               	decfsz	(??_main^(0+128)+1),f
  2052  068D  2E8A               	goto	u6247
  2053  068E  0BDF               	decfsz	(??_main^(0+128)+2),f
  2054  068F  2E8A               	goto	u6247
  2055  0690  0000               	nop
  2056                           
  2057                           ;Project Main.c: 203:         }
  2058  0691  2D50               	goto	l4398
  2059  0692                     l335:	
  2060  0692  2D50               	goto	l4398
  2061  0693  120A  118A  280C   	ljmp	start
  2062  0696                     __end_of_main:	
  2063                           
  2064                           	psect	text1
  2065  1456                     __ptext1:	
  2066 ;; *************** function ___wmul *****************
  2067 ;; Defined at:
  2068 ;;		line 15 in file "C:\Program Files (x86)\Microchip\xc8\v2.10\pic\sources\c90\common\Umul16.c"
  2069 ;; Parameters:    Size  Location     Type
  2070 ;;  multiplier      2    2[COMMON] unsigned int 
  2071 ;;  multiplicand    2    4[COMMON] unsigned int 
  2072 ;; Auto vars:     Size  Location     Type
  2073 ;;  product         2    6[COMMON] unsigned int 
  2074 ;; Return value:  Size  Location     Type
  2075 ;;                  2    2[COMMON] unsigned int 
  2076 ;; Registers used:
  2077 ;;		wreg, status,2, status,0
  2078 ;; Tracked objects:
  2079 ;;		On entry : 0/0
  2080 ;;		On exit  : 0/0
  2081 ;;		Unchanged: 0/0
  2082 ;; Data sizes:     COMMON   BANK0   BANK1   BANK3   BANK2
  2083 ;;      Params:         4       0       0       0       0
  2084 ;;      Locals:         2       0       0       0       0
  2085 ;;      Temps:          0       0       0       0       0
  2086 ;;      Totals:         6       0       0       0       0
  2087 ;;Total ram usage:        6 bytes
  2088 ;; Hardware stack levels used:    1
  2089 ;; Hardware stack levels required when called:    1
  2090 ;; This function calls:
  2091 ;;		Nothing
  2092 ;; This function is called by:
  2093 ;;		_main
  2094 ;; This function uses a non-reentrant model
  2095 ;;
  2096                           
  2097                           
  2098                           ;psect for function ___wmul
  2099  1456                     ___wmul:	
  2100  1456                     l3182:	
  2101                           ;incstack = 0
  2102                           ; Regs used in ___wmul: [wreg+status,2+status,0]
  2103                           
  2104  1456  01F6               	clrf	___wmul@product
  2105  1457  01F7               	clrf	___wmul@product+1
  2106  1458                     l3184:	
  2107  1458  1C72               	btfss	___wmul@multiplier,0
  2108  1459  2C5B               	goto	u3941
  2109  145A  2C5C               	goto	u3940
  2110  145B                     u3941:	
  2111  145B  2C62               	goto	l432
  2112  145C                     u3940:	
  2113  145C                     l3186:	
  2114  145C  0874               	movf	___wmul@multiplicand,w
  2115  145D  07F6               	addwf	___wmul@product,f
  2116  145E  1803               	skipnc
  2117  145F  0AF7               	incf	___wmul@product+1,f
  2118  1460  0875               	movf	___wmul@multiplicand+1,w
  2119  1461  07F7               	addwf	___wmul@product+1,f
  2120  1462                     l432:	
  2121  1462  3001               	movlw	1
  2122  1463                     u3955:	
  2123  1463  1003               	clrc
  2124  1464  0DF4               	rlf	___wmul@multiplicand,f
  2125  1465  0DF5               	rlf	___wmul@multiplicand+1,f
  2126  1466  3EFF               	addlw	-1
  2127  1467  1D03               	skipz
  2128  1468  2C63               	goto	u3955
  2129  1469                     l3188:	
  2130  1469  3001               	movlw	1
  2131  146A                     u3965:	
  2132  146A  1003               	clrc
  2133  146B  0CF3               	rrf	___wmul@multiplier+1,f
  2134  146C  0CF2               	rrf	___wmul@multiplier,f
  2135  146D  3EFF               	addlw	-1
  2136  146E  1D03               	skipz
  2137  146F  2C6A               	goto	u3965
  2138  1470                     l3190:	
  2139  1470  0872               	movf	___wmul@multiplier,w
  2140  1471  0473               	iorwf	___wmul@multiplier+1,w
  2141  1472  1D03               	btfss	3,2
  2142  1473  2C75               	goto	u3971
  2143  1474  2C76               	goto	u3970
  2144  1475                     u3971:	
  2145  1475  2C58               	goto	l3184
  2146  1476                     u3970:	
  2147  1476                     l3192:	
  2148  1476  0877               	movf	___wmul@product+1,w
  2149  1477  00F3               	movwf	?___wmul+1
  2150  1478  0876               	movf	___wmul@product,w
  2151  1479  00F2               	movwf	?___wmul
  2152  147A                     l434:	
  2153  147A  0008               	return
  2154  147B                     __end_of___wmul:	
  2155                           
  2156                           	psect	text2
  2157  0A1C                     __ptext2:	
  2158 ;; *************** function _SETTIME_LCD *****************
  2159 ;; Defined at:
  2160 ;;		line 133 in file "./LCD.c"
  2161 ;; Parameters:    Size  Location     Type
  2162 ;;		None
  2163 ;; Auto vars:     Size  Location     Type
  2164 ;;  a              16    6[BANK0 ] unsigned char [16]
  2165 ;;  i               1   22[BANK0 ] unsigned char 
  2166 ;; Return value:  Size  Location     Type
  2167 ;;                  1    wreg      void 
  2168 ;; Registers used:
  2169 ;;		wreg, fsr0l, fsr0h, status,2, status,0, pclath, cstack
  2170 ;; Tracked objects:
  2171 ;;		On entry : 0/0
  2172 ;;		On exit  : 0/0
  2173 ;;		Unchanged: 0/0
  2174 ;; Data sizes:     COMMON   BANK0   BANK1   BANK3   BANK2
  2175 ;;      Params:         0       0       0       0       0
  2176 ;;      Locals:         0      17       0       0       0
  2177 ;;      Temps:          0       4       0       0       0
  2178 ;;      Totals:         0      21       0       0       0
  2179 ;;Total ram usage:       21 bytes
  2180 ;; Hardware stack levels used:    1
  2181 ;; Hardware stack levels required when called:    3
  2182 ;; This function calls:
  2183 ;;		_Move_Cursor_R
  2184 ;;		_send_a_character
  2185 ;;		_send_a_command
  2186 ;; This function is called by:
  2187 ;;		_main
  2188 ;; This function uses a non-reentrant model
  2189 ;;
  2190                           
  2191                           
  2192                           ;psect for function _SETTIME_LCD
  2193  0A1C                     _SETTIME_LCD:	
  2194  0A1C                     l4092:	
  2195                           ;incstack = 0
  2196                           ; Regs used in _SETTIME_LCD: [wreg-fsr0h+status,2+status,0+pclath+cstack]
  2197                           
  2198                           
  2199                           ;./LCD.c: 134:     unsigned char a[16] = "   <SET Time>   " ;
  2200  0A1C  3026               	movlw	SETTIME_LCD@a& (0+255)
  2201  0A1D  0084               	movwf	4
  2202  0A1E  30A0               	movlw	low SETTIME_LCD@F900
  2203  0A1F  1283               	bcf	3,5	;RP0=0, select bank0
  2204  0A20  1303               	bcf	3,6	;RP1=0, select bank0
  2205  0A21  00A2               	movwf	??_SETTIME_LCD
  2206  0A22  0804               	movf	4,w
  2207  0A23  00A3               	movwf	??_SETTIME_LCD+1
  2208  0A24  3010               	movlw	16
  2209  0A25  00A4               	movwf	??_SETTIME_LCD+2
  2210  0A26                     u5670:	
  2211  0A26  0822               	movf	??_SETTIME_LCD,w
  2212  0A27  0084               	movwf	4
  2213  0A28  1383               	bcf	3,7	;select IRP bank1
  2214  0A29  0800               	movf	0,w
  2215  0A2A  00A5               	movwf	??_SETTIME_LCD+3
  2216  0A2B  0AA2               	incf	??_SETTIME_LCD,f
  2217  0A2C  0823               	movf	??_SETTIME_LCD+1,w
  2218  0A2D  0084               	movwf	4
  2219  0A2E  0825               	movf	??_SETTIME_LCD+3,w
  2220  0A2F  0080               	movwf	0
  2221  0A30  0AA3               	incf	??_SETTIME_LCD+1,f
  2222  0A31  0BA4               	decfsz	??_SETTIME_LCD+2,f
  2223  0A32  2A26               	goto	u5670
  2224  0A33                     l4094:	
  2225  0A33                     l4096:	
  2226                           
  2227                           ;./LCD.c: 136:     send_a_command(0x01);
  2228  0A33  3001               	movlw	1
  2229  0A34  160A  118A  23E3  120A  158A  	fcall	_send_a_command
  2230  0A39                     l4098:	
  2231                           
  2232                           ;./LCD.c: 137:     send_a_command(0x0E);
  2233  0A39  300E               	movlw	14
  2234  0A3A  160A  118A  23E3  120A  158A  	fcall	_send_a_command
  2235  0A3F                     l4100:	
  2236                           
  2237                           ;./LCD.c: 138:     _delay((unsigned long)((10)*(16000000UL/4000.0)));
  2238  0A3F  3034               	movlw	52
  2239  0A40  1283               	bcf	3,5	;RP0=0, select bank0
  2240  0A41  1303               	bcf	3,6	;RP1=0, select bank0
  2241  0A42  00A3               	movwf	??_SETTIME_LCD+1
  2242  0A43  30F1               	movlw	241
  2243  0A44  00A2               	movwf	??_SETTIME_LCD
  2244  0A45                     u6257:	
  2245  0A45  0BA2               	decfsz	??_SETTIME_LCD,f
  2246  0A46  2A45               	goto	u6257
  2247  0A47  0BA3               	decfsz	??_SETTIME_LCD+1,f
  2248  0A48  2A45               	goto	u6257
  2249  0A49                     l4102:	
  2250                           
  2251                           ;./LCD.c: 141:     for (i=0; (i<=15) && (*(a+i)!='\0');i++)
  2252  0A49  1283               	bcf	3,5	;RP0=0, select bank0
  2253  0A4A  1303               	bcf	3,6	;RP1=0, select bank0
  2254  0A4B  01B6               	clrf	SETTIME_LCD@i
  2255  0A4C  2A5C               	goto	l4108
  2256  0A4D                     l4104:	
  2257                           
  2258                           ;./LCD.c: 142:          {;./LCD.c: 143:         send_a_character(a[i]);
  2259  0A4D  0836               	movf	SETTIME_LCD@i,w
  2260  0A4E  3E26               	addlw	(low (SETTIME_LCD@a| 0))& (0+255)
  2261  0A4F  0084               	movwf	4
  2262  0A50  0800               	movf	0,w
  2263  0A51  160A  118A  23F8  120A  158A  	fcall	_send_a_character
  2264  0A56                     l4106:	
  2265                           
  2266                           ;./LCD.c: 144:         }
  2267  0A56  3001               	movlw	1
  2268  0A57  1283               	bcf	3,5	;RP0=0, select bank0
  2269  0A58  1303               	bcf	3,6	;RP1=0, select bank0
  2270  0A59  00A2               	movwf	??_SETTIME_LCD
  2271  0A5A  0822               	movf	??_SETTIME_LCD,w
  2272  0A5B  07B6               	addwf	SETTIME_LCD@i,f
  2273  0A5C                     l4108:	
  2274  0A5C  3010               	movlw	16
  2275  0A5D  0236               	subwf	SETTIME_LCD@i,w
  2276  0A5E  1803               	skipnc
  2277  0A5F  2A61               	goto	u5681
  2278  0A60  2A62               	goto	u5680
  2279  0A61                     u5681:	
  2280  0A61  2A6B               	goto	l4112
  2281  0A62                     u5680:	
  2282  0A62                     l4110:	
  2283  0A62  0836               	movf	SETTIME_LCD@i,w
  2284  0A63  3E26               	addlw	(low (SETTIME_LCD@a| 0))& (0+255)
  2285  0A64  0084               	movwf	4
  2286  0A65  1383               	bcf	3,7	;select IRP bank0
  2287  0A66  0800               	movf	0,w
  2288  0A67  1D03               	btfss	3,2
  2289  0A68  2A6A               	goto	u5691
  2290  0A69  2A6B               	goto	u5690
  2291  0A6A                     u5691:	
  2292  0A6A  2A4D               	goto	l4104
  2293  0A6B                     u5690:	
  2294  0A6B                     l4112:	
  2295                           
  2296                           ;./LCD.c: 145:     send_a_command(0xC0);
  2297  0A6B  30C0               	movlw	192
  2298  0A6C  160A  118A  23E3  120A  158A  	fcall	_send_a_command
  2299                           
  2300                           ;./LCD.c: 146:     send_a_character(0x30);
  2301  0A71  3030               	movlw	48
  2302  0A72  160A  118A  23F8  120A  158A  	fcall	_send_a_character
  2303                           
  2304                           ;./LCD.c: 147:     send_a_character(0x30);
  2305  0A77  3030               	movlw	48
  2306  0A78  160A  118A  23F8  120A  158A  	fcall	_send_a_character
  2307                           
  2308                           ;./LCD.c: 148:     send_a_character(0x3A);
  2309  0A7D  303A               	movlw	58
  2310  0A7E  160A  118A  23F8  120A  158A  	fcall	_send_a_character
  2311                           
  2312                           ;./LCD.c: 149:     send_a_character(0x30);
  2313  0A83  3030               	movlw	48
  2314  0A84  160A  118A  23F8  120A  158A  	fcall	_send_a_character
  2315                           
  2316                           ;./LCD.c: 150:     send_a_character(0x30);
  2317  0A89  3030               	movlw	48
  2318  0A8A  160A  118A  23F8  120A  158A  	fcall	_send_a_character
  2319                           
  2320                           ;./LCD.c: 151:     Move_Cursor_R(4);
  2321  0A8F  3004               	movlw	4
  2322  0A90  160A  118A  2610  120A  158A  	fcall	_Move_Cursor_R
  2323                           
  2324                           ;./LCD.c: 152:     send_a_character('M');
  2325  0A95  304D               	movlw	77
  2326  0A96  160A  118A  23F8  120A  158A  	fcall	_send_a_character
  2327                           
  2328                           ;./LCD.c: 153:     send_a_character('i');
  2329  0A9B  3069               	movlw	105
  2330  0A9C  160A  118A  23F8  120A  158A  	fcall	_send_a_character
  2331                           
  2332                           ;./LCD.c: 154:     send_a_character('n');
  2333  0AA1  306E               	movlw	110
  2334  0AA2  160A  118A  23F8  120A  158A  	fcall	_send_a_character
  2335                           
  2336                           ;./LCD.c: 155:     send_a_character(':');
  2337  0AA7  303A               	movlw	58
  2338  0AA8  160A  118A  23F8  120A  158A  	fcall	_send_a_character
  2339                           
  2340                           ;./LCD.c: 156:     send_a_character('S');
  2341  0AAD  3053               	movlw	83
  2342  0AAE  160A  118A  23F8  120A  158A  	fcall	_send_a_character
  2343                           
  2344                           ;./LCD.c: 157:     send_a_character('e');
  2345  0AB3  3065               	movlw	101
  2346  0AB4  160A  118A  23F8  120A  158A  	fcall	_send_a_character
  2347                           
  2348                           ;./LCD.c: 158:     send_a_character('c');
  2349  0AB9  3063               	movlw	99
  2350  0ABA  160A  118A  23F8  120A  158A  	fcall	_send_a_character
  2351                           
  2352                           ;./LCD.c: 160:     send_a_command(0xC0);
  2353  0ABF  30C0               	movlw	192
  2354  0AC0  160A  118A  23E3  120A  158A  	fcall	_send_a_command
  2355                           
  2356                           ;./LCD.c: 161:     send_a_command(0x0F);
  2357  0AC5  300F               	movlw	15
  2358  0AC6  160A  118A  23E3  120A  158A  	fcall	_send_a_command
  2359  0ACB                     l4114:	
  2360                           
  2361                           ;./LCD.c: 162:     _delay((unsigned long)((60)*(16000000UL/4000.0)));
  2362  0ACB  3002               	movlw	2
  2363  0ACC  1283               	bcf	3,5	;RP0=0, select bank0
  2364  0ACD  1303               	bcf	3,6	;RP1=0, select bank0
  2365  0ACE  00A4               	movwf	??_SETTIME_LCD+2
  2366  0ACF  3038               	movlw	56
  2367  0AD0  00A3               	movwf	??_SETTIME_LCD+1
  2368  0AD1  30AC               	movlw	172
  2369  0AD2  00A2               	movwf	??_SETTIME_LCD
  2370  0AD3                     u6267:	
  2371  0AD3  0BA2               	decfsz	??_SETTIME_LCD,f
  2372  0AD4  2AD3               	goto	u6267
  2373  0AD5  0BA3               	decfsz	??_SETTIME_LCD+1,f
  2374  0AD6  2AD3               	goto	u6267
  2375  0AD7  0BA4               	decfsz	??_SETTIME_LCD+2,f
  2376  0AD8  2AD3               	goto	u6267
  2377  0AD9  0000               	nop
  2378  0ADA                     l131:	
  2379  0ADA  0008               	return
  2380  0ADB                     __end_of_SETTIME_LCD:	
  2381                           
  2382                           	psect	text3
  2383  08D5                     __ptext3:	
  2384 ;; *************** function _SETHEAT_LCD *****************
  2385 ;; Defined at:
  2386 ;;		line 167 in file "./LCD.c"
  2387 ;; Parameters:    Size  Location     Type
  2388 ;;		None
  2389 ;; Auto vars:     Size  Location     Type
  2390 ;;  a              16    0[BANK0 ] unsigned char [16]
  2391 ;;  b               7   16[BANK0 ] unsigned char [7]
  2392 ;;  i               1   23[BANK0 ] unsigned char 
  2393 ;; Return value:  Size  Location     Type
  2394 ;;                  1    wreg      void 
  2395 ;; Registers used:
  2396 ;;		wreg, fsr0l, fsr0h, status,2, status,0, pclath, cstack
  2397 ;; Tracked objects:
  2398 ;;		On entry : 0/0
  2399 ;;		On exit  : 0/0
  2400 ;;		Unchanged: 0/0
  2401 ;; Data sizes:     COMMON   BANK0   BANK1   BANK3   BANK2
  2402 ;;      Params:         0       0       0       0       0
  2403 ;;      Locals:         0      24       0       0       0
  2404 ;;      Temps:          4       0       0       0       0
  2405 ;;      Totals:         4      24       0       0       0
  2406 ;;Total ram usage:       28 bytes
  2407 ;; Hardware stack levels used:    1
  2408 ;; Hardware stack levels required when called:    2
  2409 ;; This function calls:
  2410 ;;		_send_a_character
  2411 ;;		_send_a_command
  2412 ;; This function is called by:
  2413 ;;		_main
  2414 ;; This function uses a non-reentrant model
  2415 ;;
  2416                           
  2417                           
  2418                           ;psect for function _SETHEAT_LCD
  2419  08D5                     _SETHEAT_LCD:	
  2420  08D5                     l4116:	
  2421                           ;incstack = 0
  2422                           ; Regs used in _SETHEAT_LCD: [wreg-fsr0h+status,2+status,0+pclath+cstack]
  2423                           
  2424                           
  2425                           ;./LCD.c: 168:     unsigned char a[16] = "  <<SET HEAT>>  " ;
  2426  08D5  3020               	movlw	SETHEAT_LCD@a& (0+255)
  2427  08D6  0084               	movwf	4
  2428  08D7  3090               	movlw	low SETHEAT_LCD@F904
  2429  08D8  00F5               	movwf	??_SETHEAT_LCD
  2430  08D9  0804               	movf	4,w
  2431  08DA  00F6               	movwf	??_SETHEAT_LCD+1
  2432  08DB  3010               	movlw	16
  2433  08DC  00F7               	movwf	??_SETHEAT_LCD+2
  2434  08DD                     u5700:	
  2435  08DD  0875               	movf	??_SETHEAT_LCD,w
  2436  08DE  0084               	movwf	4
  2437  08DF  1783               	bsf	3,7	;select IRP bank3
  2438  08E0  0800               	movf	0,w
  2439  08E1  00F8               	movwf	??_SETHEAT_LCD+3
  2440  08E2  0AF5               	incf	??_SETHEAT_LCD,f
  2441  08E3  0876               	movf	??_SETHEAT_LCD+1,w
  2442  08E4  0084               	movwf	4
  2443  08E5  1383               	bcf	3,7	;select IRP bank0
  2444  08E6  0878               	movf	??_SETHEAT_LCD+3,w
  2445  08E7  0080               	movwf	0
  2446  08E8  0AF6               	incf	??_SETHEAT_LCD+1,f
  2447  08E9  0BF7               	decfsz	??_SETHEAT_LCD+2,f
  2448  08EA  28DD               	goto	u5700
  2449                           
  2450                           ;./LCD.c: 169:     unsigned char b[7] = "Pot.P1)" ;
  2451  08EB  3030               	movlw	SETHEAT_LCD@b& (0+255)
  2452  08EC  0084               	movwf	4
  2453  08ED  30D0               	movlw	low SETHEAT_LCD@F906
  2454  08EE  00F5               	movwf	??_SETHEAT_LCD
  2455  08EF  0804               	movf	4,w
  2456  08F0  00F6               	movwf	??_SETHEAT_LCD+1
  2457  08F1  3007               	movlw	7
  2458  08F2  00F7               	movwf	??_SETHEAT_LCD+2
  2459  08F3                     u5710:	
  2460  08F3  0875               	movf	??_SETHEAT_LCD,w
  2461  08F4  0084               	movwf	4
  2462  08F5  1383               	bcf	3,7	;select IRP bank1
  2463  08F6  0800               	movf	0,w
  2464  08F7  00F8               	movwf	??_SETHEAT_LCD+3
  2465  08F8  0AF5               	incf	??_SETHEAT_LCD,f
  2466  08F9  0876               	movf	??_SETHEAT_LCD+1,w
  2467  08FA  0084               	movwf	4
  2468  08FB  0878               	movf	??_SETHEAT_LCD+3,w
  2469  08FC  0080               	movwf	0
  2470  08FD  0AF6               	incf	??_SETHEAT_LCD+1,f
  2471  08FE  0BF7               	decfsz	??_SETHEAT_LCD+2,f
  2472  08FF  28F3               	goto	u5710
  2473  0900                     l4118:	
  2474  0900                     l4120:	
  2475                           
  2476                           ;./LCD.c: 171:     send_a_command(0x01);
  2477  0900  3001               	movlw	1
  2478  0901  160A  118A  23E3  120A  158A  	fcall	_send_a_command
  2479  0906                     l4122:	
  2480                           
  2481                           ;./LCD.c: 172:     send_a_command(0x0E);
  2482  0906  300E               	movlw	14
  2483  0907  160A  118A  23E3  120A  158A  	fcall	_send_a_command
  2484  090C                     l4124:	
  2485                           
  2486                           ;./LCD.c: 173:     _delay((unsigned long)((10)*(16000000UL/4000.0)));
  2487  090C  3034               	movlw	52
  2488  090D  00F6               	movwf	??_SETHEAT_LCD+1
  2489  090E  30F1               	movlw	241
  2490  090F  00F5               	movwf	??_SETHEAT_LCD
  2491  0910                     u6277:	
  2492  0910  0BF5               	decfsz	??_SETHEAT_LCD,f
  2493  0911  2910               	goto	u6277
  2494  0912  0BF6               	decfsz	??_SETHEAT_LCD+1,f
  2495  0913  2910               	goto	u6277
  2496  0914  2915               	nop2
  2497  0915                     l4126:	
  2498                           
  2499                           ;./LCD.c: 176:     for (i=0; (i<=15) && (*(a+i)!='\0');i++){
  2500  0915  1283               	bcf	3,5	;RP0=0, select bank0
  2501  0916  1303               	bcf	3,6	;RP1=0, select bank0
  2502  0917  01B7               	clrf	SETHEAT_LCD@i
  2503  0918  2928               	goto	l4132
  2504  0919                     l4128:	
  2505                           
  2506                           ;./LCD.c: 178:         send_a_character(a[i]);
  2507  0919  0837               	movf	SETHEAT_LCD@i,w
  2508  091A  3E20               	addlw	(low (SETHEAT_LCD@a| 0))& (0+255)
  2509  091B  0084               	movwf	4
  2510  091C  0800               	movf	0,w
  2511  091D  160A  118A  23F8  120A  158A  	fcall	_send_a_character
  2512  0922                     l4130:	
  2513                           
  2514                           ;./LCD.c: 179:     }
  2515  0922  3001               	movlw	1
  2516  0923  00F5               	movwf	??_SETHEAT_LCD
  2517  0924  0875               	movf	??_SETHEAT_LCD,w
  2518  0925  1283               	bcf	3,5	;RP0=0, select bank0
  2519  0926  1303               	bcf	3,6	;RP1=0, select bank0
  2520  0927  07B7               	addwf	SETHEAT_LCD@i,f
  2521  0928                     l4132:	
  2522  0928  3010               	movlw	16
  2523  0929  0237               	subwf	SETHEAT_LCD@i,w
  2524  092A  1803               	skipnc
  2525  092B  292D               	goto	u5721
  2526  092C  292E               	goto	u5720
  2527  092D                     u5721:	
  2528  092D  2937               	goto	l4136
  2529  092E                     u5720:	
  2530  092E                     l4134:	
  2531  092E  0837               	movf	SETHEAT_LCD@i,w
  2532  092F  3E20               	addlw	(low (SETHEAT_LCD@a| 0))& (0+255)
  2533  0930  0084               	movwf	4
  2534  0931  1383               	bcf	3,7	;select IRP bank0
  2535  0932  0800               	movf	0,w
  2536  0933  1D03               	btfss	3,2
  2537  0934  2936               	goto	u5731
  2538  0935  2937               	goto	u5730
  2539  0936                     u5731:	
  2540  0936  2919               	goto	l4128
  2541  0937                     u5730:	
  2542  0937                     l4136:	
  2543                           
  2544                           ;./LCD.c: 180:           send_a_command(0xC0+10);
  2545  0937  30CA               	movlw	202
  2546  0938  160A  118A  23E3  120A  158A  	fcall	_send_a_command
  2547  093D                     l4138:	
  2548                           
  2549                           ;./LCD.c: 181:           for (i=0; (i<=10) && (*(b+i)!='\0');i++){
  2550  093D  1283               	bcf	3,5	;RP0=0, select bank0
  2551  093E  1303               	bcf	3,6	;RP1=0, select bank0
  2552  093F  01B7               	clrf	SETHEAT_LCD@i
  2553  0940  2950               	goto	l4144
  2554  0941                     l4140:	
  2555                           
  2556                           ;./LCD.c: 183:         send_a_character(b[i]);
  2557  0941  0837               	movf	SETHEAT_LCD@i,w
  2558  0942  3E30               	addlw	(low (SETHEAT_LCD@b| 0))& (0+255)
  2559  0943  0084               	movwf	4
  2560  0944  0800               	movf	0,w
  2561  0945  160A  118A  23F8  120A  158A  	fcall	_send_a_character
  2562  094A                     l4142:	
  2563                           
  2564                           ;./LCD.c: 184:     }
  2565  094A  3001               	movlw	1
  2566  094B  00F5               	movwf	??_SETHEAT_LCD
  2567  094C  0875               	movf	??_SETHEAT_LCD,w
  2568  094D  1283               	bcf	3,5	;RP0=0, select bank0
  2569  094E  1303               	bcf	3,6	;RP1=0, select bank0
  2570  094F  07B7               	addwf	SETHEAT_LCD@i,f
  2571  0950                     l4144:	
  2572  0950  300B               	movlw	11
  2573  0951  0237               	subwf	SETHEAT_LCD@i,w
  2574  0952  1803               	skipnc
  2575  0953  2955               	goto	u5741
  2576  0954  2956               	goto	u5740
  2577  0955                     u5741:	
  2578  0955  295F               	goto	l148
  2579  0956                     u5740:	
  2580  0956                     l4146:	
  2581  0956  0837               	movf	SETHEAT_LCD@i,w
  2582  0957  3E30               	addlw	(low (SETHEAT_LCD@b| 0))& (0+255)
  2583  0958  0084               	movwf	4
  2584  0959  1383               	bcf	3,7	;select IRP bank0
  2585  095A  0800               	movf	0,w
  2586  095B  1D03               	btfss	3,2
  2587  095C  295E               	goto	u5751
  2588  095D  295F               	goto	u5750
  2589  095E                     u5751:	
  2590  095E  2941               	goto	l4140
  2591  095F                     u5750:	
  2592  095F                     l148:	
  2593  095F  0008               	return
  2594  0960                     __end_of_SETHEAT_LCD:	
  2595                           
  2596                           	psect	text4
  2597  0BAC                     __ptext4:	
  2598 ;; *************** function _ONStatus *****************
  2599 ;; Defined at:
  2600 ;;		line 11 in file "./MStatus.c"
  2601 ;; Parameters:    Size  Location     Type
  2602 ;;  Time            2    7[BANK0 ] unsigned int 
  2603 ;;  ptrTemp         1    9[BANK0 ] PTR unsigned char 
  2604 ;;		 -> Temp(5), 
  2605 ;; Auto vars:     Size  Location     Type
  2606 ;;  i               1   16[BANK0 ] unsigned char 
  2607 ;; Return value:  Size  Location     Type
  2608 ;;                  1    wreg      void 
  2609 ;; Registers used:
  2610 ;;		wreg, fsr0l, fsr0h, status,2, status,0, pclath, cstack
  2611 ;; Tracked objects:
  2612 ;;		On entry : 0/0
  2613 ;;		On exit  : 0/0
  2614 ;;		Unchanged: 0/0
  2615 ;; Data sizes:     COMMON   BANK0   BANK1   BANK3   BANK2
  2616 ;;      Params:         0       3       0       0       0
  2617 ;;      Locals:         0       5       0       0       0
  2618 ;;      Temps:          0       2       0       0       0
  2619 ;;      Totals:         0      10       0       0       0
  2620 ;;Total ram usage:       10 bytes
  2621 ;; Hardware stack levels used:    1
  2622 ;; Hardware stack levels required when called:    4
  2623 ;; This function calls:
  2624 ;;		_DOORSTATE
  2625 ;;		_InitTimer
  2626 ;;		_LampON
  2627 ;;		_MDONE
  2628 ;;		_MONDelay
  2629 ;;		_Move_Cursor_R
  2630 ;;		_Move_Cursor_To
  2631 ;;		_PAUSED
  2632 ;;		_PrintLINE1
  2633 ;;		_PrintLINE2
  2634 ;;		___lwdiv
  2635 ;;		___lwmod
  2636 ;;		_lcd_init
  2637 ;;		_send_a_character
  2638 ;;		_send_a_command
  2639 ;; This function is called by:
  2640 ;;		_main
  2641 ;; This function uses a non-reentrant model
  2642 ;;
  2643                           
  2644                           
  2645                           ;psect for function _ONStatus
  2646  0BAC                     _ONStatus:	
  2647  0BAC                     l4194:	
  2648                           ;incstack = 0
  2649                           ; Regs used in _ONStatus: [wreg-fsr0h+status,2+status,0+pclath+cstack]
  2650                           
  2651  0BAC                     l4196:	
  2652                           
  2653                           ;./MStatus.c: 13:     ADCON1=0x0F;
  2654  0BAC  300F               	movlw	15
  2655  0BAD  1683               	bsf	3,5	;RP0=1, select bank1
  2656  0BAE  1303               	bcf	3,6	;RP1=0, select bank1
  2657  0BAF  009F               	movwf	31	;volatile
  2658  0BB0                     l4198:	
  2659                           
  2660                           ;./MStatus.c: 14:     TRISCbits.TRISC0=1;
  2661  0BB0  1407               	bsf	7,0	;volatile
  2662  0BB1                     l4200:	
  2663                           
  2664                           ;./MStatus.c: 15:     TRISC&=(~(1<<5)) & (~(1<<2));
  2665  0BB1  30DB               	movlw	219
  2666  0BB2  1283               	bcf	3,5	;RP0=0, select bank0
  2667  0BB3  1303               	bcf	3,6	;RP1=0, select bank0
  2668  0BB4  00AA               	movwf	??_ONStatus
  2669  0BB5  082A               	movf	??_ONStatus,w
  2670  0BB6  1683               	bsf	3,5	;RP0=1, select bank1
  2671  0BB7  1303               	bcf	3,6	;RP1=0, select bank1
  2672  0BB8  0587               	andwf	7,f	;volatile
  2673                           
  2674                           ;./MStatus.c: 16:      while(TIME+1!=0){
  2675  0BB9  2D6D               	goto	l4272
  2676  0BBA                     l4202:	
  2677                           
  2678                           ;./MStatus.c: 17:          if(STATEF<=5){
  2679  0BBA  3006               	movlw	6
  2680  0BBB  1283               	bcf	3,5	;RP0=0, select bank0
  2681  0BBC  1303               	bcf	3,6	;RP1=0, select bank0
  2682  0BBD  026E               	subwf	_STATEF,w	;volatile
  2683  0BBE  1803               	skipnc
  2684  0BBF  2BC1               	goto	u5811
  2685  0BC0  2BC2               	goto	u5810
  2686  0BC1                     u5811:	
  2687  0BC1  2BF7               	goto	l4222
  2688  0BC2                     u5810:	
  2689  0BC2                     l4204:	
  2690                           
  2691                           ;./MStatus.c: 18:              lcd_init();
  2692  0BC2  160A  118A  24A4  120A  158A  	fcall	_lcd_init
  2693  0BC7                     l4206:	
  2694                           
  2695                           ;./MStatus.c: 19:              PrintLINE1(0,10,"Microwave");
  2696  0BC7  300A               	movlw	10
  2697  0BC8  1283               	bcf	3,5	;RP0=0, select bank0
  2698  0BC9  1303               	bcf	3,6	;RP1=0, select bank0
  2699  0BCA  00AA               	movwf	??_ONStatus
  2700  0BCB  082A               	movf	??_ONStatus,w
  2701  0BCC  00F5               	movwf	PrintLINE1@length
  2702  0BCD  305B               	movlw	(low ((STR_1-__stringbase)| (0+32768)))& (0+255)
  2703  0BCE  00AB               	movwf	??_ONStatus+1
  2704  0BCF  082B               	movf	??_ONStatus+1,w
  2705  0BD0  00F6               	movwf	PrintLINE1@ptrSTR
  2706  0BD1  3000               	movlw	0
  2707  0BD2  160A  118A  26DE  120A  158A  	fcall	_PrintLINE1
  2708  0BD7                     l4208:	
  2709                           
  2710                           ;./MStatus.c: 20:              Move_Cursor_R(2);
  2711  0BD7  3002               	movlw	2
  2712  0BD8  160A  118A  2610  120A  158A  	fcall	_Move_Cursor_R
  2713  0BDD                     l4210:	
  2714                           
  2715                           ;./MStatus.c: 21:              for(i=0;i<5;i++){
  2716  0BDD  1283               	bcf	3,5	;RP0=0, select bank0
  2717  0BDE  1303               	bcf	3,6	;RP1=0, select bank0
  2718  0BDF  01B0               	clrf	ONStatus@i
  2719  0BE0                     l4216:	
  2720                           
  2721                           ;./MStatus.c: 22:                  send_a_character(TIME[i]);
  2722  0BE0  0830               	movf	ONStatus@i,w
  2723  0BE1  3ED7               	addlw	(low (_TIME| 0))& (0+255)
  2724  0BE2  0084               	movwf	4
  2725  0BE3  1383               	bcf	3,7	;select IRP bank1
  2726  0BE4  0800               	movf	0,w
  2727  0BE5  160A  118A  23F8  120A  158A  	fcall	_send_a_character
  2728  0BEA                     l4218:	
  2729                           
  2730                           ;./MStatus.c: 23:                  }
  2731  0BEA  3001               	movlw	1
  2732  0BEB  1283               	bcf	3,5	;RP0=0, select bank0
  2733  0BEC  1303               	bcf	3,6	;RP1=0, select bank0
  2734  0BED  00AA               	movwf	??_ONStatus
  2735  0BEE  082A               	movf	??_ONStatus,w
  2736  0BEF  07B0               	addwf	ONStatus@i,f
  2737  0BF0                     l4220:	
  2738  0BF0  3005               	movlw	5
  2739  0BF1  0230               	subwf	ONStatus@i,w
  2740  0BF2  1C03               	skipc
  2741  0BF3  2BF5               	goto	u5821
  2742  0BF4  2BF6               	goto	u5820
  2743  0BF5                     u5821:	
  2744  0BF5  2BE0               	goto	l4216
  2745  0BF6                     u5820:	
  2746  0BF6  2C0B               	goto	l4226
  2747  0BF7                     l4222:	
  2748  0BF7  3006               	movlw	6
  2749  0BF8  066E               	xorwf	_STATEF,w	;volatile
  2750  0BF9  1D03               	btfss	3,2
  2751  0BFA  2BFC               	goto	u5831
  2752  0BFB  2BFD               	goto	u5830
  2753  0BFC                     u5831:	
  2754  0BFC  2C0B               	goto	l4226
  2755  0BFD                     u5830:	
  2756  0BFD                     l4224:	
  2757                           
  2758                           ;./MStatus.c: 26:              PrintLINE1(0,11,"Microwave  ");
  2759  0BFD  300B               	movlw	11
  2760  0BFE  00AA               	movwf	??_ONStatus
  2761  0BFF  082A               	movf	??_ONStatus,w
  2762  0C00  00F5               	movwf	PrintLINE1@length
  2763  0C01  303B               	movlw	(low ((STR_2-__stringbase)| (0+32768)))& (0+255)
  2764  0C02  00AB               	movwf	??_ONStatus+1
  2765  0C03  082B               	movf	??_ONStatus+1,w
  2766  0C04  00F6               	movwf	PrintLINE1@ptrSTR
  2767  0C05  3000               	movlw	0
  2768  0C06  160A  118A  26DE  120A  158A  	fcall	_PrintLINE1
  2769  0C0B                     l4226:	
  2770                           ;./MStatus.c: 27:          }
  2771                           
  2772                           
  2773                           ;./MStatus.c: 30:     PrintLINE2(0,4,"ON! ");
  2774  0C0B  3004               	movlw	4
  2775  0C0C  1283               	bcf	3,5	;RP0=0, select bank0
  2776  0C0D  1303               	bcf	3,6	;RP1=0, select bank0
  2777  0C0E  00AA               	movwf	??_ONStatus
  2778  0C0F  082A               	movf	??_ONStatus,w
  2779  0C10  00F5               	movwf	PrintLINE2@length
  2780  0C11  3065               	movlw	(low ((STR_3-__stringbase)| (0+32768)))& (0+255)
  2781  0C12  00AB               	movwf	??_ONStatus+1
  2782  0C13  082B               	movf	??_ONStatus+1,w
  2783  0C14  00F6               	movwf	PrintLINE2@ptrSTR
  2784  0C15  3000               	movlw	0
  2785  0C16  120A  158A  2002  120A  158A  	fcall	_PrintLINE2
  2786  0C1B                     l4228:	
  2787                           
  2788                           ;./MStatus.c: 31:     for(i=0;i<5;i++){
  2789  0C1B  1283               	bcf	3,5	;RP0=0, select bank0
  2790  0C1C  1303               	bcf	3,6	;RP1=0, select bank0
  2791  0C1D  01B0               	clrf	ONStatus@i
  2792  0C1E                     l4234:	
  2793                           
  2794                           ;./MStatus.c: 32:         send_a_character(*(ptrTemp+i));
  2795  0C1E  0830               	movf	ONStatus@i,w
  2796  0C1F  0729               	addwf	ONStatus@ptrTemp,w
  2797  0C20  00AA               	movwf	??_ONStatus
  2798  0C21  082A               	movf	??_ONStatus,w
  2799  0C22  0084               	movwf	4
  2800  0C23  1383               	bcf	3,7	;select IRP bank0
  2801  0C24  0800               	movf	0,w
  2802  0C25  160A  118A  23F8  120A  158A  	fcall	_send_a_character
  2803  0C2A                     l4236:	
  2804                           
  2805                           ;./MStatus.c: 33:     }
  2806  0C2A  3001               	movlw	1
  2807  0C2B  1283               	bcf	3,5	;RP0=0, select bank0
  2808  0C2C  1303               	bcf	3,6	;RP1=0, select bank0
  2809  0C2D  00AA               	movwf	??_ONStatus
  2810  0C2E  082A               	movf	??_ONStatus,w
  2811  0C2F  07B0               	addwf	ONStatus@i,f
  2812  0C30                     l4238:	
  2813  0C30  3005               	movlw	5
  2814  0C31  0230               	subwf	ONStatus@i,w
  2815  0C32  1C03               	skipc
  2816  0C33  2C35               	goto	u5841
  2817  0C34  2C36               	goto	u5840
  2818  0C35                     u5841:	
  2819  0C35  2C1E               	goto	l4234
  2820  0C36                     u5840:	
  2821  0C36                     l4240:	
  2822                           
  2823                           ;./MStatus.c: 35:     DOORSTATE();
  2824  0C36  160A  118A  258C  120A  158A  	fcall	_DOORSTATE
  2825  0C3B                     l4242:	
  2826                           
  2827                           ;./MStatus.c: 36:     PORTCbits.RC5=1;
  2828  0C3B  1283               	bcf	3,5	;RP0=0, select bank0
  2829  0C3C  1303               	bcf	3,6	;RP1=0, select bank0
  2830  0C3D  1687               	bsf	7,5	;volatile
  2831  0C3E                     l4244:	
  2832                           
  2833                           ;./MStatus.c: 37:     PORTCbits.RC2=1;
  2834  0C3E  1507               	bsf	7,2	;volatile
  2835                           
  2836                           ;./MStatus.c: 38:     InitTimer();
  2837  0C3F  160A  118A  2391  120A  158A  	fcall	_InitTimer
  2838  0C44  2D4E               	goto	l4264
  2839  0C45                     l4246:	
  2840                           
  2841                           ;./MStatus.c: 40:     {;./MStatus.c: 41:         DOORSTATE();
  2842  0C45  160A  118A  258C  120A  158A  	fcall	_DOORSTATE
  2843                           
  2844                           ;./MStatus.c: 48:         TIME[0]=((((Time)/60)%100)/10)+0x30;
  2845  0C4A  303C               	movlw	60
  2846  0C4B  00F2               	movwf	___lwdiv@divisor
  2847  0C4C  3000               	movlw	0
  2848  0C4D  00F3               	movwf	___lwdiv@divisor+1
  2849  0C4E  1283               	bcf	3,5	;RP0=0, select bank0
  2850  0C4F  1303               	bcf	3,6	;RP1=0, select bank0
  2851  0C50  0828               	movf	ONStatus@Time+1,w
  2852  0C51  00F5               	movwf	___lwdiv@dividend+1
  2853  0C52  0827               	movf	ONStatus@Time,w
  2854  0C53  00F4               	movwf	___lwdiv@dividend
  2855  0C54  160A  118A  2698  120A  158A  	fcall	___lwdiv
  2856  0C59  0873               	movf	?___lwdiv+1,w
  2857  0C5A  1283               	bcf	3,5	;RP0=0, select bank0
  2858  0C5B  1303               	bcf	3,6	;RP1=0, select bank0
  2859  0C5C  00A6               	movwf	___lwmod@dividend+1
  2860  0C5D  0872               	movf	?___lwdiv,w
  2861  0C5E  00A5               	movwf	___lwmod@dividend
  2862  0C5F  3064               	movlw	100
  2863  0C60  00A3               	movwf	___lwmod@divisor
  2864  0C61  3000               	movlw	0
  2865  0C62  00A4               	movwf	___lwmod@divisor+1
  2866  0C63  160A  118A  2514  120A  158A  	fcall	___lwmod
  2867  0C68  1283               	bcf	3,5	;RP0=0, select bank0
  2868  0C69  1303               	bcf	3,6	;RP1=0, select bank0
  2869  0C6A  0824               	movf	?___lwmod+1,w
  2870  0C6B  00AD               	movwf	_ONStatus$1030+1
  2871  0C6C  0823               	movf	?___lwmod,w
  2872  0C6D  00AC               	movwf	_ONStatus$1030
  2873                           
  2874                           ;./MStatus.c: 48:         TIME[0]=((((Time)/60)%100)/10)+0x30;
  2875  0C6E  300A               	movlw	10
  2876  0C6F  00F2               	movwf	___lwdiv@divisor
  2877  0C70  3000               	movlw	0
  2878  0C71  00F3               	movwf	___lwdiv@divisor+1
  2879  0C72  082D               	movf	_ONStatus$1030+1,w
  2880  0C73  00F5               	movwf	___lwdiv@dividend+1
  2881  0C74  082C               	movf	_ONStatus$1030,w
  2882  0C75  00F4               	movwf	___lwdiv@dividend
  2883  0C76  160A  118A  2698  120A  158A  	fcall	___lwdiv
  2884  0C7B  0872               	movf	?___lwdiv,w
  2885  0C7C  3E30               	addlw	48
  2886  0C7D  1283               	bcf	3,5	;RP0=0, select bank0
  2887  0C7E  1303               	bcf	3,6	;RP1=0, select bank0
  2888  0C7F  00AA               	movwf	??_ONStatus
  2889  0C80  082A               	movf	??_ONStatus,w
  2890  0C81  1683               	bsf	3,5	;RP0=1, select bank1
  2891  0C82  1303               	bcf	3,6	;RP1=0, select bank1
  2892  0C83  00D7               	movwf	_TIME^(0+128)
  2893                           
  2894                           ;./MStatus.c: 49:         TIME[1]=(((Time)/60)%10)+0x30;
  2895  0C84  300A               	movlw	10
  2896  0C85  1283               	bcf	3,5	;RP0=0, select bank0
  2897  0C86  1303               	bcf	3,6	;RP1=0, select bank0
  2898  0C87  00A3               	movwf	___lwmod@divisor
  2899  0C88  3000               	movlw	0
  2900  0C89  00A4               	movwf	___lwmod@divisor+1
  2901  0C8A  303C               	movlw	60
  2902  0C8B  00F2               	movwf	___lwdiv@divisor
  2903  0C8C  3000               	movlw	0
  2904  0C8D  00F3               	movwf	___lwdiv@divisor+1
  2905  0C8E  0828               	movf	ONStatus@Time+1,w
  2906  0C8F  00F5               	movwf	___lwdiv@dividend+1
  2907  0C90  0827               	movf	ONStatus@Time,w
  2908  0C91  00F4               	movwf	___lwdiv@dividend
  2909  0C92  160A  118A  2698  120A  158A  	fcall	___lwdiv
  2910  0C97  0873               	movf	?___lwdiv+1,w
  2911  0C98  1283               	bcf	3,5	;RP0=0, select bank0
  2912  0C99  1303               	bcf	3,6	;RP1=0, select bank0
  2913  0C9A  00A6               	movwf	___lwmod@dividend+1
  2914  0C9B  0872               	movf	?___lwdiv,w
  2915  0C9C  00A5               	movwf	___lwmod@dividend
  2916  0C9D  160A  118A  2514  120A  158A  	fcall	___lwmod
  2917  0CA2  1283               	bcf	3,5	;RP0=0, select bank0
  2918  0CA3  1303               	bcf	3,6	;RP1=0, select bank0
  2919  0CA4  0823               	movf	?___lwmod,w
  2920  0CA5  3E30               	addlw	48
  2921  0CA6  00AA               	movwf	??_ONStatus
  2922  0CA7  082A               	movf	??_ONStatus,w
  2923  0CA8  1683               	bsf	3,5	;RP0=1, select bank1
  2924  0CA9  1303               	bcf	3,6	;RP1=0, select bank1
  2925  0CAA  00D8               	movwf	(_TIME^(0+128)+1)
  2926                           
  2927                           ;./MStatus.c: 50:         TIME[3]=((((Time)%60)%100)/10)+0x30;
  2928  0CAB  1283               	bcf	3,5	;RP0=0, select bank0
  2929  0CAC  1303               	bcf	3,6	;RP1=0, select bank0
  2930  0CAD  0828               	movf	ONStatus@Time+1,w
  2931  0CAE  00A6               	movwf	___lwmod@dividend+1
  2932  0CAF  0827               	movf	ONStatus@Time,w
  2933  0CB0  00A5               	movwf	___lwmod@dividend
  2934  0CB1  303C               	movlw	60
  2935  0CB2  00A3               	movwf	___lwmod@divisor
  2936  0CB3  3000               	movlw	0
  2937  0CB4  00A4               	movwf	___lwmod@divisor+1
  2938  0CB5  160A  118A  2514  120A  158A  	fcall	___lwmod
  2939  0CBA  1283               	bcf	3,5	;RP0=0, select bank0
  2940  0CBB  1303               	bcf	3,6	;RP1=0, select bank0
  2941  0CBC  0824               	movf	?___lwmod+1,w
  2942  0CBD  00AF               	movwf	_ONStatus$1031+1
  2943  0CBE  0823               	movf	?___lwmod,w
  2944  0CBF  00AE               	movwf	_ONStatus$1031
  2945                           
  2946                           ;./MStatus.c: 50:         TIME[3]=((((Time)%60)%100)/10)+0x30;
  2947  0CC0  300A               	movlw	10
  2948  0CC1  00F2               	movwf	___lwdiv@divisor
  2949  0CC2  3000               	movlw	0
  2950  0CC3  00F3               	movwf	___lwdiv@divisor+1
  2951  0CC4  082F               	movf	_ONStatus$1031+1,w
  2952  0CC5  00A6               	movwf	___lwmod@dividend+1
  2953  0CC6  082E               	movf	_ONStatus$1031,w
  2954  0CC7  00A5               	movwf	___lwmod@dividend
  2955  0CC8  3064               	movlw	100
  2956  0CC9  00A3               	movwf	___lwmod@divisor
  2957  0CCA  3000               	movlw	0
  2958  0CCB  00A4               	movwf	___lwmod@divisor+1
  2959  0CCC  160A  118A  2514  120A  158A  	fcall	___lwmod
  2960  0CD1  1283               	bcf	3,5	;RP0=0, select bank0
  2961  0CD2  1303               	bcf	3,6	;RP1=0, select bank0
  2962  0CD3  0824               	movf	?___lwmod+1,w
  2963  0CD4  00F5               	movwf	___lwdiv@dividend+1
  2964  0CD5  0823               	movf	?___lwmod,w
  2965  0CD6  00F4               	movwf	___lwdiv@dividend
  2966  0CD7  160A  118A  2698  120A  158A  	fcall	___lwdiv
  2967  0CDC  0872               	movf	?___lwdiv,w
  2968  0CDD  3E30               	addlw	48
  2969  0CDE  1283               	bcf	3,5	;RP0=0, select bank0
  2970  0CDF  1303               	bcf	3,6	;RP1=0, select bank0
  2971  0CE0  00AA               	movwf	??_ONStatus
  2972  0CE1  082A               	movf	??_ONStatus,w
  2973  0CE2  1683               	bsf	3,5	;RP0=1, select bank1
  2974  0CE3  1303               	bcf	3,6	;RP1=0, select bank1
  2975  0CE4  00DA               	movwf	(_TIME^(0+128)+3)
  2976                           
  2977                           ;./MStatus.c: 51:         TIME[4]=(((Time)%60)%10)+0x30;
  2978  0CE5  1283               	bcf	3,5	;RP0=0, select bank0
  2979  0CE6  1303               	bcf	3,6	;RP1=0, select bank0
  2980  0CE7  0828               	movf	ONStatus@Time+1,w
  2981  0CE8  00A6               	movwf	___lwmod@dividend+1
  2982  0CE9  0827               	movf	ONStatus@Time,w
  2983  0CEA  00A5               	movwf	___lwmod@dividend
  2984  0CEB  303C               	movlw	60
  2985  0CEC  00A3               	movwf	___lwmod@divisor
  2986  0CED  3000               	movlw	0
  2987  0CEE  00A4               	movwf	___lwmod@divisor+1
  2988  0CEF  160A  118A  2514  120A  158A  	fcall	___lwmod
  2989  0CF4  1283               	bcf	3,5	;RP0=0, select bank0
  2990  0CF5  1303               	bcf	3,6	;RP1=0, select bank0
  2991  0CF6  0824               	movf	?___lwmod+1,w
  2992  0CF7  00AF               	movwf	_ONStatus$1031+1
  2993  0CF8  0823               	movf	?___lwmod,w
  2994  0CF9  00AE               	movwf	_ONStatus$1031
  2995                           
  2996                           ;./MStatus.c: 51:         TIME[4]=(((Time)%60)%10)+0x30;
  2997  0CFA  300A               	movlw	10
  2998  0CFB  00A3               	movwf	___lwmod@divisor
  2999  0CFC  3000               	movlw	0
  3000  0CFD  00A4               	movwf	___lwmod@divisor+1
  3001  0CFE  082F               	movf	_ONStatus$1031+1,w
  3002  0CFF  00A6               	movwf	___lwmod@dividend+1
  3003  0D00  082E               	movf	_ONStatus$1031,w
  3004  0D01  00A5               	movwf	___lwmod@dividend
  3005  0D02  160A  118A  2514  120A  158A  	fcall	___lwmod
  3006  0D07  1283               	bcf	3,5	;RP0=0, select bank0
  3007  0D08  1303               	bcf	3,6	;RP1=0, select bank0
  3008  0D09  0823               	movf	?___lwmod,w
  3009  0D0A  3E30               	addlw	48
  3010  0D0B  00AA               	movwf	??_ONStatus
  3011  0D0C  082A               	movf	??_ONStatus,w
  3012  0D0D  1683               	bsf	3,5	;RP0=1, select bank1
  3013  0D0E  1303               	bcf	3,6	;RP1=0, select bank1
  3014  0D0F  00DB               	movwf	(_TIME^(0+128)+4)
  3015                           
  3016                           ;./MStatus.c: 52:         MONDelay();
  3017  0D10  160A  118A  2432  120A  158A  	fcall	_MONDelay
  3018                           
  3019                           ;./MStatus.c: 53:         Move_Cursor_To(0,11);
  3020  0D15  300B               	movlw	11
  3021  0D16  1283               	bcf	3,5	;RP0=0, select bank0
  3022  0D17  1303               	bcf	3,6	;RP1=0, select bank0
  3023  0D18  00AA               	movwf	??_ONStatus
  3024  0D19  082A               	movf	??_ONStatus,w
  3025  0D1A  00F5               	movwf	Move_Cursor_To@L2
  3026  0D1B  3000               	movlw	0
  3027  0D1C  160A  118A  2654  120A  158A  	fcall	_Move_Cursor_To
  3028                           
  3029                           ;./MStatus.c: 54:         send_a_command(0x0C);
  3030  0D21  300C               	movlw	12
  3031  0D22  160A  118A  23E3  120A  158A  	fcall	_send_a_command
  3032  0D27                     l4248:	
  3033                           
  3034                           ;./MStatus.c: 55:         for(i=0;i<5;i++)
  3035  0D27  1283               	bcf	3,5	;RP0=0, select bank0
  3036  0D28  1303               	bcf	3,6	;RP1=0, select bank0
  3037  0D29  01B0               	clrf	ONStatus@i
  3038  0D2A                     l4254:	
  3039                           
  3040                           ;./MStatus.c: 56:         {;./MStatus.c: 57:             send_a_character(TIME[i]);
  3041  0D2A  0830               	movf	ONStatus@i,w
  3042  0D2B  3ED7               	addlw	(low (_TIME| 0))& (0+255)
  3043  0D2C  0084               	movwf	4
  3044  0D2D  1383               	bcf	3,7	;select IRP bank1
  3045  0D2E  0800               	movf	0,w
  3046  0D2F  160A  118A  23F8  120A  158A  	fcall	_send_a_character
  3047  0D34                     l4256:	
  3048                           
  3049                           ;./MStatus.c: 58:         }
  3050  0D34  3001               	movlw	1
  3051  0D35  1283               	bcf	3,5	;RP0=0, select bank0
  3052  0D36  1303               	bcf	3,6	;RP1=0, select bank0
  3053  0D37  00AA               	movwf	??_ONStatus
  3054  0D38  082A               	movf	??_ONStatus,w
  3055  0D39  07B0               	addwf	ONStatus@i,f
  3056  0D3A                     l4258:	
  3057  0D3A  3005               	movlw	5
  3058  0D3B  0230               	subwf	ONStatus@i,w
  3059  0D3C  1C03               	skipc
  3060  0D3D  2D3F               	goto	u5851
  3061  0D3E  2D40               	goto	u5850
  3062  0D3F                     u5851:	
  3063  0D3F  2D2A               	goto	l4254
  3064  0D40                     u5850:	
  3065  0D40                     l4260:	
  3066                           
  3067                           ;./MStatus.c: 59:         LampON(1);
  3068  0D40  3001               	movlw	1
  3069  0D41  160A  118A  23AB  120A  158A  	fcall	_LampON
  3070  0D46                     l4262:	
  3071                           
  3072                           ;./MStatus.c: 60:     }
  3073  0D46  3001               	movlw	1
  3074  0D47  1283               	bcf	3,5	;RP0=0, select bank0
  3075  0D48  1303               	bcf	3,6	;RP1=0, select bank0
  3076  0D49  02A7               	subwf	ONStatus@Time,f
  3077  0D4A  3000               	movlw	0
  3078  0D4B  1C03               	skipc
  3079  0D4C  03A8               	decf	ONStatus@Time+1,f
  3080  0D4D  02A8               	subwf	ONStatus@Time+1,f
  3081  0D4E                     l4264:	
  3082  0D4E  1283               	bcf	3,5	;RP0=0, select bank0
  3083  0D4F  1303               	bcf	3,6	;RP1=0, select bank0
  3084  0D50  0827               	movf	ONStatus@Time,w
  3085  0D51  3E01               	addlw	1
  3086  0D52  00AA               	movwf	??_ONStatus
  3087  0D53  0828               	movf	ONStatus@Time+1,w
  3088  0D54  1803               	skipnc
  3089  0D55  3E01               	addlw	1
  3090  0D56  3E00               	addlw	0
  3091  0D57  00AB               	movwf	??_ONStatus+1
  3092  0D58  082A               	movf	??_ONStatus,w
  3093  0D59  042B               	iorwf	??_ONStatus+1,w
  3094  0D5A  1903               	btfsc	3,2
  3095  0D5B  2D5D               	goto	u5861
  3096  0D5C  2D5E               	goto	u5860
  3097  0D5D                     u5861:	
  3098  0D5D  2D63               	goto	l4268
  3099  0D5E                     u5860:	
  3100  0D5E                     l4266:	
  3101  0D5E  086D               	movf	_DOOR,w
  3102  0D5F  1903               	btfsc	3,2
  3103  0D60  2D62               	goto	u5871
  3104  0D61  2D63               	goto	u5870
  3105  0D62                     u5871:	
  3106  0D62  2C45               	goto	l4246
  3107  0D63                     u5870:	
  3108  0D63                     l4268:	
  3109                           
  3110                           ;./MStatus.c: 62:     if((TIME+1)!=0)
  3111  0D63  30D8               	movlw	(low ((_TIME| 0+1)))& (0+255)
  3112  0D64  1903               	btfsc	3,2
  3113  0D65  2D67               	goto	u5881
  3114  0D66  2D68               	goto	u5880
  3115  0D67                     u5881:	
  3116  0D67  2D6D               	goto	l4272
  3117  0D68                     u5880:	
  3118  0D68                     l4270:	
  3119                           
  3120                           ;./MStatus.c: 63:     {;./MStatus.c: 64:         PAUSED();
  3121  0D68  160A  118A  24DA  120A  158A  	fcall	_PAUSED
  3122  0D6D                     l4272:	
  3123                           
  3124                           ;./MStatus.c: 16:      while(TIME+1!=0){
  3125  0D6D  30D8               	movlw	(low ((_TIME| 0+1)))& (0+255)
  3126  0D6E  1D03               	btfss	3,2
  3127  0D6F  2D71               	goto	u5891
  3128  0D70  2D72               	goto	u5890
  3129  0D71                     u5891:	
  3130  0D71  2BBA               	goto	l4202
  3131  0D72                     u5890:	
  3132  0D72                     l4274:	
  3133                           
  3134                           ;./MStatus.c: 69:     MDONE();
  3135  0D72  120A  118A  27AF  120A  158A  	fcall	_MDONE
  3136  0D77                     l248:	
  3137  0D77  0008               	return
  3138  0D78                     __end_of_ONStatus:	
  3139                           
  3140                           	psect	text5
  3141  14DA                     __ptext5:	
  3142 ;; *************** function _PAUSED *****************
  3143 ;; Defined at:
  3144 ;;		line 72 in file "./MStatus.c"
  3145 ;; Parameters:    Size  Location     Type
  3146 ;;		None
  3147 ;; Auto vars:     Size  Location     Type
  3148 ;;		None
  3149 ;; Return value:  Size  Location     Type
  3150 ;;                  1    wreg      void 
  3151 ;; Registers used:
  3152 ;;		wreg, fsr0l, fsr0h, status,2, status,0, pclath, cstack
  3153 ;; Tracked objects:
  3154 ;;		On entry : 0/0
  3155 ;;		On exit  : 0/0
  3156 ;;		Unchanged: 0/0
  3157 ;; Data sizes:     COMMON   BANK0   BANK1   BANK3   BANK2
  3158 ;;      Params:         0       0       0       0       0
  3159 ;;      Locals:         0       0       0       0       0
  3160 ;;      Temps:          0       2       0       0       0
  3161 ;;      Totals:         0       2       0       0       0
  3162 ;;Total ram usage:        2 bytes
  3163 ;; Hardware stack levels used:    1
  3164 ;; Hardware stack levels required when called:    3
  3165 ;; This function calls:
  3166 ;;		_DOORSTATE
  3167 ;;		_LampON
  3168 ;;		_PrintLINE1
  3169 ;;		_PrintLINE2
  3170 ;; This function is called by:
  3171 ;;		_ONStatus
  3172 ;; This function uses a non-reentrant model
  3173 ;;
  3174                           
  3175                           
  3176                           ;psect for function _PAUSED
  3177  14DA                     _PAUSED:	
  3178  14DA                     l3518:	
  3179                           ;incstack = 0
  3180                           ; Regs used in _PAUSED: [wreg-fsr0h+status,2+status,0+pclath+cstack]
  3181                           
  3182                           
  3183                           ;./MStatus.c: 73:     LampON(0);
  3184  14DA  3000               	movlw	0
  3185  14DB  160A  118A  23AB  160A  118A  	fcall	_LampON
  3186  14E0                     l3520:	
  3187                           
  3188                           ;./MStatus.c: 74:     PORTCbits.RC5=0;
  3189  14E0  1283               	bcf	3,5	;RP0=0, select bank0
  3190  14E1  1303               	bcf	3,6	;RP1=0, select bank0
  3191  14E2  1287               	bcf	7,5	;volatile
  3192  14E3                     l3522:	
  3193                           
  3194                           ;./MStatus.c: 75:     PORTCbits.RC2=0;
  3195  14E3  1107               	bcf	7,2	;volatile
  3196  14E4                     l3524:	
  3197                           
  3198                           ;./MStatus.c: 76:     PrintLINE1(0,13,"DOOR OPEN");
  3199  14E4  300D               	movlw	13
  3200  14E5  00A3               	movwf	??_PAUSED
  3201  14E6  0823               	movf	??_PAUSED,w
  3202  14E7  00F5               	movwf	PrintLINE1@length
  3203  14E8  3051               	movlw	(low ((STR_4-__stringbase)| (0+32768)))& (0+255)
  3204  14E9  00A4               	movwf	??_PAUSED+1
  3205  14EA  0824               	movf	??_PAUSED+1,w
  3206  14EB  00F6               	movwf	PrintLINE1@ptrSTR
  3207  14EC  3000               	movlw	0
  3208  14ED  160A  118A  26DE  160A  118A  	fcall	_PrintLINE1
  3209  14F2                     l3526:	
  3210                           
  3211                           ;./MStatus.c: 77:     PrintLINE2(0,16,"PAUSED!! ");
  3212  14F2  3010               	movlw	16
  3213  14F3  1283               	bcf	3,5	;RP0=0, select bank0
  3214  14F4  1303               	bcf	3,6	;RP1=0, select bank0
  3215  14F5  00A3               	movwf	??_PAUSED
  3216  14F6  0823               	movf	??_PAUSED,w
  3217  14F7  00F5               	movwf	PrintLINE2@length
  3218  14F8  3047               	movlw	(low ((STR_5-__stringbase)| (0+32768)))& (0+255)
  3219  14F9  00A4               	movwf	??_PAUSED+1
  3220  14FA  0824               	movf	??_PAUSED+1,w
  3221  14FB  00F6               	movwf	PrintLINE2@ptrSTR
  3222  14FC  3000               	movlw	0
  3223  14FD  120A  158A  2002  160A  118A  	fcall	_PrintLINE2
  3224                           
  3225                           ;./MStatus.c: 78:     while(DOOR)
  3226  1502  2D08               	goto	l3530
  3227  1503                     l3528:	
  3228                           
  3229                           ;./MStatus.c: 79:     {;./MStatus.c: 80:         DOORSTATE();
  3230  1503  160A  118A  258C  160A  118A  	fcall	_DOORSTATE
  3231  1508                     l3530:	
  3232                           
  3233                           ;./MStatus.c: 78:     while(DOOR)
  3234  1508  1283               	bcf	3,5	;RP0=0, select bank0
  3235  1509  1303               	bcf	3,6	;RP1=0, select bank0
  3236  150A  086D               	movf	_DOOR,w
  3237  150B  1D03               	btfss	3,2
  3238  150C  2D0E               	goto	u4371
  3239  150D  2D0F               	goto	u4370
  3240  150E                     u4371:	
  3241  150E  2D03               	goto	l3528
  3242  150F                     u4370:	
  3243  150F                     l3532:	
  3244                           
  3245                           ;./MStatus.c: 82:     STATEF=6;
  3246  150F  3006               	movlw	6
  3247  1510  00A3               	movwf	??_PAUSED
  3248  1511  0823               	movf	??_PAUSED,w
  3249  1512  00EE               	movwf	_STATEF	;volatile
  3250  1513                     l254:	
  3251  1513  0008               	return
  3252  1514                     __end_of_PAUSED:	
  3253                           
  3254                           	psect	text6
  3255  1654                     __ptext6:	
  3256 ;; *************** function _Move_Cursor_To *****************
  3257 ;; Defined at:
  3258 ;;		line 68 in file "./LCD.c"
  3259 ;; Parameters:    Size  Location     Type
  3260 ;;  L1              1    wreg     unsigned char 
  3261 ;;  L2              1    5[COMMON] unsigned char 
  3262 ;; Auto vars:     Size  Location     Type
  3263 ;;  L1              1    0[BANK0 ] unsigned char 
  3264 ;; Return value:  Size  Location     Type
  3265 ;;                  1    wreg      void 
  3266 ;; Registers used:
  3267 ;;		wreg, status,2, status,0, pclath, cstack
  3268 ;; Tracked objects:
  3269 ;;		On entry : 0/0
  3270 ;;		On exit  : 0/0
  3271 ;;		Unchanged: 0/0
  3272 ;; Data sizes:     COMMON   BANK0   BANK1   BANK3   BANK2
  3273 ;;      Params:         1       0       0       0       0
  3274 ;;      Locals:         0       1       0       0       0
  3275 ;;      Temps:          3       0       0       0       0
  3276 ;;      Totals:         4       1       0       0       0
  3277 ;;Total ram usage:        5 bytes
  3278 ;; Hardware stack levels used:    1
  3279 ;; Hardware stack levels required when called:    2
  3280 ;; This function calls:
  3281 ;;		_send_a_command
  3282 ;; This function is called by:
  3283 ;;		_ONStatus
  3284 ;;		_main
  3285 ;; This function uses a non-reentrant model
  3286 ;;
  3287                           
  3288                           
  3289                           ;psect for function _Move_Cursor_To
  3290  1654                     _Move_Cursor_To:	
  3291                           
  3292                           ;incstack = 0
  3293                           ; Regs used in _Move_Cursor_To: [wreg+status,2+status,0+pclath+cstack]
  3294                           ;Move_Cursor_To@L1 stored from wreg
  3295  1654  1283               	bcf	3,5	;RP0=0, select bank0
  3296  1655  1303               	bcf	3,6	;RP1=0, select bank0
  3297  1656  00A0               	movwf	Move_Cursor_To@L1
  3298  1657                     l3496:	
  3299                           
  3300                           ;./LCD.c: 69:     TRISD &=0x00;
  3301  1657  1683               	bsf	3,5	;RP0=1, select bank1
  3302  1658  1303               	bcf	3,6	;RP1=0, select bank1
  3303  1659  0188               	clrf	8	;volatile
  3304  165A                     l3498:	
  3305                           
  3306                           ;./LCD.c: 70:     TRISE1 &=0;
  3307  165A  1089               	bcf	9,1	;volatile
  3308  165B                     l3500:	
  3309                           
  3310                           ;./LCD.c: 71:     TRISE2 &=0;
  3311  165B  1109               	bcf	9,2	;volatile
  3312  165C                     l3502:	
  3313                           
  3314                           ;./LCD.c: 73:     _delay((unsigned long)((60)*(16000000UL/4000.0)));
  3315  165C  3002               	movlw	2
  3316  165D  00F8               	movwf	??_Move_Cursor_To+2
  3317  165E  3038               	movlw	56
  3318  165F  00F7               	movwf	??_Move_Cursor_To+1
  3319  1660  30AD               	movlw	173
  3320  1661  00F6               	movwf	??_Move_Cursor_To
  3321  1662                     u6287:	
  3322  1662  0BF6               	decfsz	??_Move_Cursor_To,f
  3323  1663  2E62               	goto	u6287
  3324  1664  0BF7               	decfsz	??_Move_Cursor_To+1,f
  3325  1665  2E62               	goto	u6287
  3326  1666  0BF8               	decfsz	??_Move_Cursor_To+2,f
  3327  1667  2E62               	goto	u6287
  3328  1668                     l3504:	
  3329                           
  3330                           ;./LCD.c: 74:     if(L1==0){
  3331  1668  1283               	bcf	3,5	;RP0=0, select bank0
  3332  1669  1303               	bcf	3,6	;RP1=0, select bank0
  3333  166A  0820               	movf	Move_Cursor_To@L1,w
  3334  166B  1D03               	btfss	3,2
  3335  166C  2E6E               	goto	u4351
  3336  166D  2E6F               	goto	u4350
  3337  166E                     u4351:	
  3338  166E  2E76               	goto	l3508
  3339  166F                     u4350:	
  3340  166F                     l3506:	
  3341                           
  3342                           ;./LCD.c: 75:     send_a_command(0xC0+L2);
  3343  166F  0875               	movf	Move_Cursor_To@L2,w
  3344  1670  3EC0               	addlw	192
  3345  1671  160A  118A  23E3  160A  118A  	fcall	_send_a_command
  3346  1676                     l3508:	
  3347                           
  3348                           ;./LCD.c: 77:     if(L2==0){
  3349  1676  0875               	movf	Move_Cursor_To@L2,w
  3350  1677  1D03               	btfss	3,2
  3351  1678  2E7A               	goto	u4361
  3352  1679  2E7B               	goto	u4360
  3353  167A                     u4361:	
  3354  167A  2E84               	goto	l96
  3355  167B                     u4360:	
  3356  167B                     l3510:	
  3357                           
  3358                           ;./LCD.c: 78:     send_a_command(0x38+L1);
  3359  167B  1283               	bcf	3,5	;RP0=0, select bank0
  3360  167C  1303               	bcf	3,6	;RP1=0, select bank0
  3361  167D  0820               	movf	Move_Cursor_To@L1,w
  3362  167E  3E38               	addlw	56
  3363  167F  160A  118A  23E3  160A  118A  	fcall	_send_a_command
  3364  1684                     l96:	
  3365                           ;./LCD.c: 79:     }
  3366                           
  3367                           
  3368                           ;./LCD.c: 80:      send_a_command(0x0C);
  3369  1684  300C               	movlw	12
  3370  1685  160A  118A  23E3  160A  118A  	fcall	_send_a_command
  3371  168A                     l3512:	
  3372                           
  3373                           ;./LCD.c: 81:     _delay((unsigned long)((50)*(16000000UL/4000.0)));
  3374  168A  3002               	movlw	2
  3375  168B  00F8               	movwf	??_Move_Cursor_To+2
  3376  168C  3004               	movlw	4
  3377  168D  00F7               	movwf	??_Move_Cursor_To+1
  3378  168E  30BA               	movlw	186
  3379  168F  00F6               	movwf	??_Move_Cursor_To
  3380  1690                     u6297:	
  3381  1690  0BF6               	decfsz	??_Move_Cursor_To,f
  3382  1691  2E90               	goto	u6297
  3383  1692  0BF7               	decfsz	??_Move_Cursor_To+1,f
  3384  1693  2E90               	goto	u6297
  3385  1694  0BF8               	decfsz	??_Move_Cursor_To+2,f
  3386  1695  2E90               	goto	u6297
  3387  1696  0000               	nop
  3388  1697                     l3514:	
  3389  1697                     l3516:	
  3390  1697                     l97:	
  3391  1697  0008               	return
  3392  1698                     __end_of_Move_Cursor_To:	
  3393                           
  3394                           	psect	text7
  3395  1610                     __ptext7:	
  3396 ;; *************** function _Move_Cursor_R *****************
  3397 ;; Defined at:
  3398 ;;		line 37 in file "./LCD.c"
  3399 ;; Parameters:    Size  Location     Type
  3400 ;;  NumShiftingR    1    wreg     unsigned char 
  3401 ;; Auto vars:     Size  Location     Type
  3402 ;;  NumShiftingR    1    0[BANK0 ] unsigned char 
  3403 ;;  i               1    1[BANK0 ] unsigned char 
  3404 ;; Return value:  Size  Location     Type
  3405 ;;                  1    wreg      void 
  3406 ;; Registers used:
  3407 ;;		wreg, status,2, status,0, pclath, cstack
  3408 ;; Tracked objects:
  3409 ;;		On entry : 0/0
  3410 ;;		On exit  : 0/0
  3411 ;;		Unchanged: 0/0
  3412 ;; Data sizes:     COMMON   BANK0   BANK1   BANK3   BANK2
  3413 ;;      Params:         0       0       0       0       0
  3414 ;;      Locals:         0       2       0       0       0
  3415 ;;      Temps:          3       0       0       0       0
  3416 ;;      Totals:         3       2       0       0       0
  3417 ;;Total ram usage:        5 bytes
  3418 ;; Hardware stack levels used:    1
  3419 ;; Hardware stack levels required when called:    2
  3420 ;; This function calls:
  3421 ;;		_send_a_command
  3422 ;; This function is called by:
  3423 ;;		_SETTIME_LCD
  3424 ;;		_ONStatus
  3425 ;;		_main
  3426 ;; This function uses a non-reentrant model
  3427 ;;
  3428                           
  3429                           
  3430                           ;psect for function _Move_Cursor_R
  3431  1610                     _Move_Cursor_R:	
  3432                           
  3433                           ;incstack = 0
  3434                           ; Regs used in _Move_Cursor_R: [wreg+status,2+status,0+pclath+cstack]
  3435                           ;Move_Cursor_R@NumShiftingR stored from wreg
  3436  1610  1283               	bcf	3,5	;RP0=0, select bank0
  3437  1611  1303               	bcf	3,6	;RP1=0, select bank0
  3438  1612  00A0               	movwf	Move_Cursor_R@NumShiftingR
  3439  1613                     l3474:	
  3440                           
  3441                           ;./LCD.c: 38:     unsigned char i;;./LCD.c: 39:     TRISD &=0x00;
  3442  1613  1683               	bsf	3,5	;RP0=1, select bank1
  3443  1614  1303               	bcf	3,6	;RP1=0, select bank1
  3444  1615  0188               	clrf	8	;volatile
  3445  1616                     l3476:	
  3446                           
  3447                           ;./LCD.c: 40:     TRISE1 &=0;
  3448  1616  1089               	bcf	9,1	;volatile
  3449  1617                     l3478:	
  3450                           
  3451                           ;./LCD.c: 41:     TRISE2 &=0;
  3452  1617  1109               	bcf	9,2	;volatile
  3453  1618                     l3480:	
  3454                           
  3455                           ;./LCD.c: 43:     _delay((unsigned long)((60)*(16000000UL/4000.0)));
  3456  1618  3002               	movlw	2
  3457  1619  00F7               	movwf	??_Move_Cursor_R+2
  3458  161A  3038               	movlw	56
  3459  161B  00F6               	movwf	??_Move_Cursor_R+1
  3460  161C  30AD               	movlw	173
  3461  161D  00F5               	movwf	??_Move_Cursor_R
  3462  161E                     u6307:	
  3463  161E  0BF5               	decfsz	??_Move_Cursor_R,f
  3464  161F  2E1E               	goto	u6307
  3465  1620  0BF6               	decfsz	??_Move_Cursor_R+1,f
  3466  1621  2E1E               	goto	u6307
  3467  1622  0BF7               	decfsz	??_Move_Cursor_R+2,f
  3468  1623  2E1E               	goto	u6307
  3469  1624                     l3482:	
  3470                           
  3471                           ;./LCD.c: 45:     send_a_command(0x0F);
  3472  1624  300F               	movlw	15
  3473  1625  160A  118A  23E3  160A  118A  	fcall	_send_a_command
  3474  162A                     l3484:	
  3475                           
  3476                           ;./LCD.c: 46:     for(i=0;i<NumShiftingR;i++){
  3477  162A  1283               	bcf	3,5	;RP0=0, select bank0
  3478  162B  1303               	bcf	3,6	;RP1=0, select bank0
  3479  162C  01A1               	clrf	Move_Cursor_R@i
  3480  162D  2E3A               	goto	l3490
  3481  162E                     l3486:	
  3482                           
  3483                           ;./LCD.c: 47:     send_a_command(0x14);
  3484  162E  3014               	movlw	20
  3485  162F  160A  118A  23E3  160A  118A  	fcall	_send_a_command
  3486  1634                     l3488:	
  3487                           
  3488                           ;./LCD.c: 48:     }
  3489  1634  3001               	movlw	1
  3490  1635  00F5               	movwf	??_Move_Cursor_R
  3491  1636  0875               	movf	??_Move_Cursor_R,w
  3492  1637  1283               	bcf	3,5	;RP0=0, select bank0
  3493  1638  1303               	bcf	3,6	;RP1=0, select bank0
  3494  1639  07A1               	addwf	Move_Cursor_R@i,f
  3495  163A                     l3490:	
  3496  163A  0820               	movf	Move_Cursor_R@NumShiftingR,w
  3497  163B  0221               	subwf	Move_Cursor_R@i,w
  3498  163C  1C03               	skipc
  3499  163D  2E3F               	goto	u4341
  3500  163E  2E40               	goto	u4340
  3501  163F                     u4341:	
  3502  163F  2E2E               	goto	l3486
  3503  1640                     u4340:	
  3504  1640                     l3492:	
  3505                           
  3506                           ;./LCD.c: 49:     send_a_command(0x0F);
  3507  1640  300F               	movlw	15
  3508  1641  160A  118A  23E3  160A  118A  	fcall	_send_a_command
  3509  1646                     l3494:	
  3510                           
  3511                           ;./LCD.c: 50:     _delay((unsigned long)((80)*(16000000UL/4000.0)));
  3512  1646  3002               	movlw	2
  3513  1647  00F7               	movwf	??_Move_Cursor_R+2
  3514  1648  30A0               	movlw	160
  3515  1649  00F6               	movwf	??_Move_Cursor_R+1
  3516  164A  3092               	movlw	146
  3517  164B  00F5               	movwf	??_Move_Cursor_R
  3518  164C                     u6317:	
  3519  164C  0BF5               	decfsz	??_Move_Cursor_R,f
  3520  164D  2E4C               	goto	u6317
  3521  164E  0BF6               	decfsz	??_Move_Cursor_R+1,f
  3522  164F  2E4C               	goto	u6317
  3523  1650  0BF7               	decfsz	??_Move_Cursor_R+2,f
  3524  1651  2E4C               	goto	u6317
  3525  1652  0000               	nop
  3526  1653                     l86:	
  3527  1653  0008               	return
  3528  1654                     __end_of_Move_Cursor_R:	
  3529                           
  3530                           	psect	text8
  3531  1432                     __ptext8:	
  3532 ;; *************** function _MONDelay *****************
  3533 ;; Defined at:
  3534 ;;		line 48 in file "./TimerDelay.c"
  3535 ;; Parameters:    Size  Location     Type
  3536 ;;		None
  3537 ;; Auto vars:     Size  Location     Type
  3538 ;;  i               1    6[COMMON] unsigned char 
  3539 ;; Return value:  Size  Location     Type
  3540 ;;                  1    wreg      void 
  3541 ;; Registers used:
  3542 ;;		wreg, status,2, status,0, pclath, cstack
  3543 ;; Tracked objects:
  3544 ;;		On entry : 0/0
  3545 ;;		On exit  : 0/0
  3546 ;;		Unchanged: 0/0
  3547 ;; Data sizes:     COMMON   BANK0   BANK1   BANK3   BANK2
  3548 ;;      Params:         0       0       0       0       0
  3549 ;;      Locals:         1       0       0       0       0
  3550 ;;      Temps:          1       0       0       0       0
  3551 ;;      Totals:         2       0       0       0       0
  3552 ;;Total ram usage:        2 bytes
  3553 ;; Hardware stack levels used:    1
  3554 ;; Hardware stack levels required when called:    2
  3555 ;; This function calls:
  3556 ;;		_DOORSTATE
  3557 ;; This function is called by:
  3558 ;;		_ONStatus
  3559 ;; This function uses a non-reentrant model
  3560 ;;
  3561                           
  3562                           
  3563                           ;psect for function _MONDelay
  3564  1432                     _MONDelay:	
  3565  1432                     l2326:	
  3566                           ;incstack = 0
  3567                           ; Regs used in _MONDelay: [wreg+status,2+status,0+pclath+cstack]
  3568                           
  3569                           
  3570                           ;./TimerDelay.c: 50:      TMR1ON = 1;
  3571  1432  1283               	bcf	3,5	;RP0=0, select bank0
  3572  1433  1303               	bcf	3,6	;RP1=0, select bank0
  3573  1434  1410               	bsf	16,0	;volatile
  3574  1435                     l2328:	
  3575                           
  3576                           ;./TimerDelay.c: 51:     unsigned char i=0;
  3577  1435  01F6               	clrf	MONDelay@i
  3578                           
  3579                           ;./TimerDelay.c: 52:      for( i=0 ; i<6 ;i++)
  3580  1436  01F6               	clrf	MONDelay@i
  3581  1437                     l2334:	
  3582                           
  3583                           ;./TimerDelay.c: 53:      {;./TimerDelay.c: 55:         TMR1Counter=0;
  3584  1437  01EF               	clrf	_TMR1Counter
  3585  1438                     l2336:	
  3586                           
  3587                           ;./TimerDelay.c: 56:         TMR1H=0x0B;
  3588  1438  300B               	movlw	11
  3589  1439  008F               	movwf	15	;volatile
  3590  143A                     l2338:	
  3591                           
  3592                           ;./TimerDelay.c: 57:         TMR1L=0xDF;
  3593  143A  30DF               	movlw	223
  3594  143B  008E               	movwf	14	;volatile
  3595                           
  3596                           ;./TimerDelay.c: 60:         while (TMR1Counter!=1){
  3597  143C  2C42               	goto	l2342
  3598  143D                     l2340:	
  3599                           
  3600                           ;./TimerDelay.c: 61:         DOORSTATE();}
  3601  143D  160A  118A  258C  160A  118A  	fcall	_DOORSTATE
  3602  1442                     l2342:	
  3603                           
  3604                           ;./TimerDelay.c: 60:         while (TMR1Counter!=1){
  3605  1442  1283               	bcf	3,5	;RP0=0, select bank0
  3606  1443  1303               	bcf	3,6	;RP1=0, select bank0
  3607  1444  036F               	decf	_TMR1Counter,w
  3608  1445  1D03               	btfss	3,2
  3609  1446  2C48               	goto	u2211
  3610  1447  2C49               	goto	u2210
  3611  1448                     u2211:	
  3612  1448  2C3D               	goto	l2340
  3613  1449                     u2210:	
  3614  1449                     l225:	
  3615                           
  3616                           ;./TimerDelay.c: 62:         TMR1IF=0;
  3617  1449  100C               	bcf	12,0	;volatile
  3618  144A                     l2344:	
  3619                           
  3620                           ;./TimerDelay.c: 63:      }
  3621  144A  3001               	movlw	1
  3622  144B  00F5               	movwf	??_MONDelay
  3623  144C  0875               	movf	??_MONDelay,w
  3624  144D  07F6               	addwf	MONDelay@i,f
  3625  144E                     l2346:	
  3626  144E  3006               	movlw	6
  3627  144F  0276               	subwf	MONDelay@i,w
  3628  1450  1C03               	skipc
  3629  1451  2C53               	goto	u2221
  3630  1452  2C54               	goto	u2220
  3631  1453                     u2221:	
  3632  1453  2C37               	goto	l2334
  3633  1454                     u2220:	
  3634  1454                     l222:	
  3635                           
  3636                           ;./TimerDelay.c: 64:     TMR1ON = 0;
  3637  1454  1010               	bcf	16,0	;volatile
  3638  1455                     l226:	
  3639  1455  0008               	return
  3640  1456                     __end_of_MONDelay:	
  3641                           
  3642                           	psect	text9
  3643  158C                     __ptext9:	
  3644 ;; *************** function _DOORSTATE *****************
  3645 ;; Defined at:
  3646 ;;		line 103 in file "./MStatus.c"
  3647 ;; Parameters:    Size  Location     Type
  3648 ;;		None
  3649 ;; Auto vars:     Size  Location     Type
  3650 ;;		None
  3651 ;; Return value:  Size  Location     Type
  3652 ;;                  1    wreg      void 
  3653 ;; Registers used:
  3654 ;;		wreg, status,2, status,0
  3655 ;; Tracked objects:
  3656 ;;		On entry : 0/0
  3657 ;;		On exit  : 0/0
  3658 ;;		Unchanged: 0/0
  3659 ;; Data sizes:     COMMON   BANK0   BANK1   BANK3   BANK2
  3660 ;;      Params:         0       0       0       0       0
  3661 ;;      Locals:         0       0       0       0       0
  3662 ;;      Temps:          3       0       0       0       0
  3663 ;;      Totals:         3       0       0       0       0
  3664 ;;Total ram usage:        3 bytes
  3665 ;; Hardware stack levels used:    1
  3666 ;; Hardware stack levels required when called:    1
  3667 ;; This function calls:
  3668 ;;		Nothing
  3669 ;; This function is called by:
  3670 ;;		_MONDelay
  3671 ;;		_ONStatus
  3672 ;;		_PAUSED
  3673 ;;		_main
  3674 ;; This function uses a non-reentrant model
  3675 ;;
  3676                           
  3677                           
  3678                           ;psect for function _DOORSTATE
  3679  158C                     _DOORSTATE:	
  3680  158C                     l2234:	
  3681                           ;incstack = 0
  3682                           ; Regs used in _DOORSTATE: [wreg+status,2+status,0]
  3683                           
  3684                           
  3685                           ;./MStatus.c: 104:     TRISB4|=1;
  3686  158C  1683               	bsf	3,5	;RP0=1, select bank1
  3687  158D  1303               	bcf	3,6	;RP1=0, select bank1
  3688  158E  1606               	bsf	6,4	;volatile
  3689  158F                     l2236:	
  3690                           
  3691                           ;./MStatus.c: 105:     PORTB&=0xEF;
  3692  158F  30EF               	movlw	239
  3693  1590  00F2               	movwf	??_DOORSTATE
  3694  1591  0872               	movf	??_DOORSTATE,w
  3695  1592  1283               	bcf	3,5	;RP0=0, select bank0
  3696  1593  1303               	bcf	3,6	;RP1=0, select bank0
  3697  1594  0586               	andwf	6,f	;volatile
  3698  1595                     l2238:	
  3699                           
  3700                           ;./MStatus.c: 106:     TRISCbits.TRISC0=0;
  3701  1595  1683               	bsf	3,5	;RP0=1, select bank1
  3702  1596  1303               	bcf	3,6	;RP1=0, select bank1
  3703  1597  1007               	bcf	7,0	;volatile
  3704  1598                     l2240:	
  3705                           
  3706                           ;./MStatus.c: 107:     if(!PORTBbits.RB4)
  3707  1598  1283               	bcf	3,5	;RP0=0, select bank0
  3708  1599  1303               	bcf	3,6	;RP1=0, select bank0
  3709  159A  1A06               	btfsc	6,4	;volatile
  3710  159B  2D9D               	goto	u2101
  3711  159C  2D9E               	goto	u2100
  3712  159D                     u2101:	
  3713  159D  2DCB               	goto	l269
  3714  159E                     u2100:	
  3715  159E                     l2242:	
  3716                           
  3717                           ;./MStatus.c: 108:     {;./MStatus.c: 109:         _delay((unsigned long)((60)*(16000000
      +                          UL/4000.0)));
  3718  159E  3002               	movlw	2
  3719  159F  00F4               	movwf	??_DOORSTATE+2
  3720  15A0  3038               	movlw	56
  3721  15A1  00F3               	movwf	??_DOORSTATE+1
  3722  15A2  30AD               	movlw	173
  3723  15A3  00F2               	movwf	??_DOORSTATE
  3724  15A4                     u6327:	
  3725  15A4  0BF2               	decfsz	??_DOORSTATE,f
  3726  15A5  2DA4               	goto	u6327
  3727  15A6  0BF3               	decfsz	??_DOORSTATE+1,f
  3728  15A7  2DA4               	goto	u6327
  3729  15A8  0BF4               	decfsz	??_DOORSTATE+2,f
  3730  15A9  2DA4               	goto	u6327
  3731  15AA                     l2244:	
  3732                           
  3733                           ;./MStatus.c: 110:             if(!PORTBbits.RB4){
  3734  15AA  1283               	bcf	3,5	;RP0=0, select bank0
  3735  15AB  1303               	bcf	3,6	;RP1=0, select bank0
  3736  15AC  1A06               	btfsc	6,4	;volatile
  3737  15AD  2DAF               	goto	u2111
  3738  15AE  2DB0               	goto	u2110
  3739  15AF                     u2111:	
  3740  15AF  2DCB               	goto	l269
  3741  15B0                     u2110:	
  3742  15B0                     l264:	
  3743  15B0  1E06               	btfss	6,4	;volatile
  3744  15B1  2DB3               	goto	u2121
  3745  15B2  2DB4               	goto	u2120
  3746  15B3                     u2121:	
  3747  15B3  2DB0               	goto	l264
  3748  15B4                     u2120:	
  3749  15B4                     l2248:	
  3750                           
  3751                           ;./MStatus.c: 112:                     _delay((unsigned long)((100)*(16000000UL/4000.0))
      +                          );
  3752  15B4  3003               	movlw	3
  3753  15B5  00F4               	movwf	??_DOORSTATE+2
  3754  15B6  3008               	movlw	8
  3755  15B7  00F3               	movwf	??_DOORSTATE+1
  3756  15B8  3077               	movlw	119
  3757  15B9  00F2               	movwf	??_DOORSTATE
  3758  15BA                     u6337:	
  3759  15BA  0BF2               	decfsz	??_DOORSTATE,f
  3760  15BB  2DBA               	goto	u6337
  3761  15BC  0BF3               	decfsz	??_DOORSTATE+1,f
  3762  15BD  2DBA               	goto	u6337
  3763  15BE  0BF4               	decfsz	??_DOORSTATE+2,f
  3764  15BF  2DBA               	goto	u6337
  3765  15C0                     l2250:	
  3766                           
  3767                           ;./MStatus.c: 113:                     DOOR=~DOOR;
  3768  15C0  1283               	bcf	3,5	;RP0=0, select bank0
  3769  15C1  1303               	bcf	3,6	;RP1=0, select bank0
  3770  15C2  09ED               	comf	_DOOR,f
  3771  15C3                     l2252:	
  3772                           
  3773                           ;./MStatus.c: 114:                         if(DOOR)
  3774  15C3  086D               	movf	_DOOR,w
  3775  15C4  1903               	btfsc	3,2
  3776  15C5  2DC7               	goto	u2131
  3777  15C6  2DC8               	goto	u2130
  3778  15C7                     u2131:	
  3779  15C7  2DCA               	goto	l267
  3780  15C8                     u2130:	
  3781  15C8                     l2254:	
  3782                           
  3783                           ;./MStatus.c: 115:                         {;./MStatus.c: 116:                          
      +                             PORTCbits.RC0=1;
  3784  15C8  1407               	bsf	7,0	;volatile
  3785                           
  3786                           ;./MStatus.c: 117:                         }
  3787  15C9  2DCB               	goto	l269
  3788  15CA                     l267:	
  3789                           ;./MStatus.c: 118:                         else{
  3790                           
  3791                           
  3792                           ;./MStatus.c: 119:                             PORTCbits.RC0=0;
  3793  15CA  1007               	bcf	7,0	;volatile
  3794  15CB                     l269:	
  3795  15CB  0008               	return
  3796  15CC                     __end_of_DOORSTATE:	
  3797                           
  3798                           	psect	text10
  3799  07AF                     __ptext10:	
  3800 ;; *************** function _MDONE *****************
  3801 ;; Defined at:
  3802 ;;		line 85 in file "./MStatus.c"
  3803 ;; Parameters:    Size  Location     Type
  3804 ;;		None
  3805 ;; Auto vars:     Size  Location     Type
  3806 ;;  i               1    8[COMMON] unsigned char 
  3807 ;; Return value:  Size  Location     Type
  3808 ;;                  1    wreg      void 
  3809 ;; Registers used:
  3810 ;;		wreg, fsr0l, fsr0h, status,2, status,0, pclath, cstack
  3811 ;; Tracked objects:
  3812 ;;		On entry : 0/0
  3813 ;;		On exit  : 0/0
  3814 ;;		Unchanged: 0/0
  3815 ;; Data sizes:     COMMON   BANK0   BANK1   BANK3   BANK2
  3816 ;;      Params:         0       0       0       0       0
  3817 ;;      Locals:         1       0       0       0       0
  3818 ;;      Temps:          0       3       0       0       0
  3819 ;;      Totals:         1       3       0       0       0
  3820 ;;Total ram usage:        4 bytes
  3821 ;; Hardware stack levels used:    1
  3822 ;; Hardware stack levels required when called:    3
  3823 ;; This function calls:
  3824 ;;		_LampON
  3825 ;;		_PrintLINE1
  3826 ;;		_PrintLINE2
  3827 ;;		_lcd_init
  3828 ;; This function is called by:
  3829 ;;		_ONStatus
  3830 ;; This function uses a non-reentrant model
  3831 ;;
  3832                           
  3833                           
  3834                           ;psect for function _MDONE
  3835  07AF                     _MDONE:	
  3836  07AF                     l3534:	
  3837                           ;incstack = 0
  3838                           ; Regs used in _MDONE: [wreg-fsr0h+status,2+status,0+pclath+cstack]
  3839                           
  3840                           
  3841                           ;./MStatus.c: 86:     LampON(0);
  3842  07AF  3000               	movlw	0
  3843  07B0  160A  118A  23AB  120A  118A  	fcall	_LampON
  3844  07B5                     l3536:	
  3845  07B5                     l3538:	
  3846                           
  3847                           ;./MStatus.c: 88:     PORTCbits.RC5=0;
  3848  07B5  1283               	bcf	3,5	;RP0=0, select bank0
  3849  07B6  1303               	bcf	3,6	;RP1=0, select bank0
  3850  07B7  1287               	bcf	7,5	;volatile
  3851  07B8                     l3540:	
  3852                           
  3853                           ;./MStatus.c: 89:     PORTCbits.RC2=0;
  3854  07B8  1107               	bcf	7,2	;volatile
  3855  07B9                     l3542:	
  3856                           
  3857                           ;./MStatus.c: 90:     for(i=0;i<5;i++){
  3858  07B9  01F8               	clrf	MDONE@i
  3859  07BA                     l3548:	
  3860                           
  3861                           ;./MStatus.c: 91:     lcd_init();
  3862  07BA  160A  118A  24A4  120A  118A  	fcall	_lcd_init
  3863  07BF                     l3550:	
  3864                           
  3865                           ;./MStatus.c: 92:     PrintLINE1(0,15,"   FOOD READY");
  3866  07BF  300F               	movlw	15
  3867  07C0  1283               	bcf	3,5	;RP0=0, select bank0
  3868  07C1  1303               	bcf	3,6	;RP1=0, select bank0
  3869  07C2  00A3               	movwf	??_MDONE
  3870  07C3  0823               	movf	??_MDONE,w
  3871  07C4  00F5               	movwf	PrintLINE1@length
  3872  07C5  301F               	movlw	(low ((STR_6-__stringbase)| (0+32768)))& (0+255)
  3873  07C6  00A4               	movwf	??_MDONE+1
  3874  07C7  0824               	movf	??_MDONE+1,w
  3875  07C8  00F6               	movwf	PrintLINE1@ptrSTR
  3876  07C9  3000               	movlw	0
  3877  07CA  160A  118A  26DE  120A  118A  	fcall	_PrintLINE1
  3878  07CF                     l3552:	
  3879                           
  3880                           ;./MStatus.c: 93:     PrintLINE2(0,15,"   Bon appetit");
  3881  07CF  300F               	movlw	15
  3882  07D0  1283               	bcf	3,5	;RP0=0, select bank0
  3883  07D1  1303               	bcf	3,6	;RP1=0, select bank0
  3884  07D2  00A3               	movwf	??_MDONE
  3885  07D3  0823               	movf	??_MDONE,w
  3886  07D4  00F5               	movwf	PrintLINE2@length
  3887  07D5  3010               	movlw	(low ((STR_7-__stringbase)| (0+32768)))& (0+255)
  3888  07D6  00A4               	movwf	??_MDONE+1
  3889  07D7  0824               	movf	??_MDONE+1,w
  3890  07D8  00F6               	movwf	PrintLINE2@ptrSTR
  3891  07D9  3000               	movlw	0
  3892  07DA  120A  158A  2002  120A  118A  	fcall	_PrintLINE2
  3893  07DF                     l3554:	
  3894                           
  3895                           ;./MStatus.c: 94:     _delay((unsigned long)((2000)*(16000000UL/4000.0)));
  3896  07DF  3029               	movlw	41
  3897  07E0  1283               	bcf	3,5	;RP0=0, select bank0
  3898  07E1  1303               	bcf	3,6	;RP1=0, select bank0
  3899  07E2  00A5               	movwf	??_MDONE+2
  3900  07E3  3096               	movlw	150
  3901  07E4  00A4               	movwf	??_MDONE+1
  3902  07E5  307E               	movlw	126
  3903  07E6  00A3               	movwf	??_MDONE
  3904  07E7                     u6347:	
  3905  07E7  0BA3               	decfsz	??_MDONE,f
  3906  07E8  2FE7               	goto	u6347
  3907  07E9  0BA4               	decfsz	??_MDONE+1,f
  3908  07EA  2FE7               	goto	u6347
  3909  07EB  0BA5               	decfsz	??_MDONE+2,f
  3910  07EC  2FE7               	goto	u6347
  3911  07ED  0000               	nop
  3912  07EE                     l3556:	
  3913                           
  3914                           ;./MStatus.c: 95:     }
  3915  07EE  3001               	movlw	1
  3916  07EF  1283               	bcf	3,5	;RP0=0, select bank0
  3917  07F0  1303               	bcf	3,6	;RP1=0, select bank0
  3918  07F1  00A3               	movwf	??_MDONE
  3919  07F2  0823               	movf	??_MDONE,w
  3920  07F3  07F8               	addwf	MDONE@i,f
  3921  07F4                     l3558:	
  3922  07F4  3005               	movlw	5
  3923  07F5  0278               	subwf	MDONE@i,w
  3924  07F6  1C03               	skipc
  3925  07F7  2FF9               	goto	u4381
  3926  07F8  2FFA               	goto	u4380
  3927  07F9                     u4381:	
  3928  07F9  2FBA               	goto	l3548
  3929  07FA                     u4380:	
  3930  07FA                     l3560:	
  3931                           
  3932                           ;./MStatus.c: 96:     STATEF=0;
  3933  07FA  01EE               	clrf	_STATEF	;volatile
  3934  07FB                     l259:	
  3935  07FB  0008               	return
  3936  07FC                     __end_of_MDONE:	
  3937                           
  3938                           	psect	text11
  3939  14A4                     __ptext11:	
  3940 ;; *************** function _lcd_init *****************
  3941 ;; Defined at:
  3942 ;;		line 103 in file "./LCD.c"
  3943 ;; Parameters:    Size  Location     Type
  3944 ;;		None
  3945 ;; Auto vars:     Size  Location     Type
  3946 ;;		None
  3947 ;; Return value:  Size  Location     Type
  3948 ;;                  1    wreg      void 
  3949 ;; Registers used:
  3950 ;;		wreg, status,2, status,0, pclath, cstack
  3951 ;; Tracked objects:
  3952 ;;		On entry : 0/0
  3953 ;;		On exit  : 0/0
  3954 ;;		Unchanged: 0/0
  3955 ;; Data sizes:     COMMON   BANK0   BANK1   BANK3   BANK2
  3956 ;;      Params:         0       0       0       0       0
  3957 ;;      Locals:         0       0       0       0       0
  3958 ;;      Temps:          2       0       0       0       0
  3959 ;;      Totals:         2       0       0       0       0
  3960 ;;Total ram usage:        2 bytes
  3961 ;; Hardware stack levels used:    1
  3962 ;; Hardware stack levels required when called:    2
  3963 ;; This function calls:
  3964 ;;		_send_a_command
  3965 ;; This function is called by:
  3966 ;;		_ONStatus
  3967 ;;		_MDONE
  3968 ;;		_main
  3969 ;; This function uses a non-reentrant model
  3970 ;;
  3971                           
  3972                           
  3973                           ;psect for function _lcd_init
  3974  14A4                     _lcd_init:	
  3975  14A4                     l3396:	
  3976                           ;incstack = 0
  3977                           ; Regs used in _lcd_init: [wreg+status,2+status,0+pclath+cstack]
  3978                           
  3979                           
  3980                           ;./LCD.c: 105:     TRISD &=0x00;
  3981  14A4  1683               	bsf	3,5	;RP0=1, select bank1
  3982  14A5  1303               	bcf	3,6	;RP1=0, select bank1
  3983  14A6  0188               	clrf	8	;volatile
  3984  14A7                     l3398:	
  3985                           
  3986                           ;./LCD.c: 106:     TRISE1 &= 0;
  3987  14A7  1089               	bcf	9,1	;volatile
  3988  14A8                     l3400:	
  3989                           
  3990                           ;./LCD.c: 107:     TRISE2 &= 0;
  3991  14A8  1109               	bcf	9,2	;volatile
  3992  14A9                     l3402:	
  3993                           
  3994                           ;./LCD.c: 108:     _delay((unsigned long)((20)*(16000000UL/4000.0)));
  3995  14A9  3068               	movlw	104
  3996  14AA  00F6               	movwf	??_lcd_init+1
  3997  14AB  30E4               	movlw	228
  3998  14AC  00F5               	movwf	??_lcd_init
  3999  14AD                     u6357:	
  4000  14AD  0BF5               	decfsz	??_lcd_init,f
  4001  14AE  2CAD               	goto	u6357
  4002  14AF  0BF6               	decfsz	??_lcd_init+1,f
  4003  14B0  2CAD               	goto	u6357
  4004  14B1  0000               	nop
  4005  14B2                     l3404:	
  4006                           
  4007                           ;./LCD.c: 109:  send_a_command(0x08);
  4008  14B2  3008               	movlw	8
  4009  14B3  160A  118A  23E3  160A  118A  	fcall	_send_a_command
  4010  14B8                     l3406:	
  4011                           
  4012                           ;./LCD.c: 110:  send_a_command(0x0F);
  4013  14B8  300F               	movlw	15
  4014  14B9  160A  118A  23E3  160A  118A  	fcall	_send_a_command
  4015  14BE                     l3408:	
  4016                           
  4017                           ;./LCD.c: 111:  send_a_command(0x01);
  4018  14BE  3001               	movlw	1
  4019  14BF  160A  118A  23E3  160A  118A  	fcall	_send_a_command
  4020  14C4                     l3410:	
  4021                           
  4022                           ;./LCD.c: 112:  send_a_command(0x38);
  4023  14C4  3038               	movlw	56
  4024  14C5  160A  118A  23E3  160A  118A  	fcall	_send_a_command
  4025  14CA                     l3412:	
  4026                           
  4027                           ;./LCD.c: 113:     send_a_command(0x80);
  4028  14CA  3080               	movlw	128
  4029  14CB  160A  118A  23E3  160A  118A  	fcall	_send_a_command
  4030  14D0                     l3414:	
  4031                           
  4032                           ;./LCD.c: 114:     _delay((unsigned long)((3)*(16000000UL/4000.0)));
  4033  14D0  3010               	movlw	16
  4034  14D1  00F6               	movwf	??_lcd_init+1
  4035  14D2  3094               	movlw	148
  4036  14D3  00F5               	movwf	??_lcd_init
  4037  14D4                     u6367:	
  4038  14D4  0BF5               	decfsz	??_lcd_init,f
  4039  14D5  2CD4               	goto	u6367
  4040  14D6  0BF6               	decfsz	??_lcd_init+1,f
  4041  14D7  2CD4               	goto	u6367
  4042  14D8  0000               	nop
  4043  14D9                     l117:	
  4044  14D9  0008               	return
  4045  14DA                     __end_of_lcd_init:	
  4046                           
  4047                           	psect	text12
  4048  0802                     __ptext12:	
  4049 ;; *************** function _PrintLINE2 *****************
  4050 ;; Defined at:
  4051 ;;		line 224 in file "./LCD.c"
  4052 ;; Parameters:    Size  Location     Type
  4053 ;;  place           1    wreg     unsigned char 
  4054 ;;  length          1    5[COMMON] unsigned char 
  4055 ;;  ptrSTR          1    6[COMMON] PTR unsigned char 
  4056 ;;		 -> STR_9(15), STR_7(15), STR_5(10), STR_3(5), 
  4057 ;; Auto vars:     Size  Location     Type
  4058 ;;  place           1    7[COMMON] unsigned char 
  4059 ;; Return value:  Size  Location     Type
  4060 ;;                  1    wreg      void 
  4061 ;; Registers used:
  4062 ;;		wreg, fsr0l, fsr0h, status,2, status,0, pclath, cstack
  4063 ;; Tracked objects:
  4064 ;;		On entry : 0/0
  4065 ;;		On exit  : 0/0
  4066 ;;		Unchanged: 0/0
  4067 ;; Data sizes:     COMMON   BANK0   BANK1   BANK3   BANK2
  4068 ;;      Params:         2       0       0       0       0
  4069 ;;      Locals:         1       0       0       0       0
  4070 ;;      Temps:          0       3       0       0       0
  4071 ;;      Totals:         3       3       0       0       0
  4072 ;;Total ram usage:        6 bytes
  4073 ;; Hardware stack levels used:    1
  4074 ;; Hardware stack levels required when called:    2
  4075 ;; This function calls:
  4076 ;;		_send_a_character
  4077 ;;		_send_a_command
  4078 ;; This function is called by:
  4079 ;;		_ONStatus
  4080 ;;		_PAUSED
  4081 ;;		_MDONE
  4082 ;;		_main
  4083 ;; This function uses a non-reentrant model
  4084 ;;
  4085                           
  4086                           
  4087                           ;psect for function _PrintLINE2
  4088  0802                     _PrintLINE2:	
  4089                           
  4090                           ;incstack = 0
  4091                           ; Regs used in _PrintLINE2: [wreg-fsr0h+status,2+status,0+pclath+cstack]
  4092                           ;PrintLINE2@place stored from wreg
  4093  0802  00F7               	movwf	PrintLINE2@place
  4094  0803                     l3436:	
  4095                           
  4096                           ;./LCD.c: 225:     TRISD &=0x00;
  4097  0803  1683               	bsf	3,5	;RP0=1, select bank1
  4098  0804  1303               	bcf	3,6	;RP1=0, select bank1
  4099  0805  0188               	clrf	8	;volatile
  4100  0806                     l3438:	
  4101                           
  4102                           ;./LCD.c: 226:     TRISE1 &=0;
  4103  0806  1089               	bcf	9,1	;volatile
  4104  0807                     l3440:	
  4105                           
  4106                           ;./LCD.c: 227:     TRISE2 &=0;
  4107  0807  1109               	bcf	9,2	;volatile
  4108  0808                     l3442:	
  4109                           
  4110                           ;./LCD.c: 228:     _delay((unsigned long)((70)*(16000000UL/4000.0)));
  4111  0808  3002               	movlw	2
  4112  0809  1283               	bcf	3,5	;RP0=0, select bank0
  4113  080A  1303               	bcf	3,6	;RP1=0, select bank0
  4114  080B  00A2               	movwf	??_PrintLINE2+2
  4115  080C  306C               	movlw	108
  4116  080D  00A1               	movwf	??_PrintLINE2+1
  4117  080E  309F               	movlw	159
  4118  080F  00A0               	movwf	??_PrintLINE2
  4119  0810                     u6377:	
  4120  0810  0BA0               	decfsz	??_PrintLINE2,f
  4121  0811  2810               	goto	u6377
  4122  0812  0BA1               	decfsz	??_PrintLINE2+1,f
  4123  0813  2810               	goto	u6377
  4124  0814  0BA2               	decfsz	??_PrintLINE2+2,f
  4125  0815  2810               	goto	u6377
  4126  0816                     l3444:	
  4127                           
  4128                           ;./LCD.c: 229:     send_a_command(0xC0+place);
  4129  0816  0877               	movf	PrintLINE2@place,w
  4130  0817  3EC0               	addlw	192
  4131  0818  160A  118A  23E3  120A  158A  	fcall	_send_a_command
  4132  081D                     l3446:	
  4133                           
  4134                           ;./LCD.c: 230:     send_a_command(0x0C);
  4135  081D  300C               	movlw	12
  4136  081E  160A  118A  23E3  120A  158A  	fcall	_send_a_command
  4137                           
  4138                           ;./LCD.c: 231:     for (; ((*(ptrSTR+place))!='\0')&&(place<length);place++){
  4139  0823  2837               	goto	l3452
  4140  0824                     l3448:	
  4141                           
  4142                           ;./LCD.c: 233:         send_a_character(ptrSTR[place]);
  4143  0824  0877               	movf	PrintLINE2@place,w
  4144  0825  0776               	addwf	PrintLINE2@ptrSTR,w
  4145  0826  0084               	movwf	4
  4146  0827  160A  118A  2000  120A  158A  	fcall	stringdir
  4147  082C  160A  118A  23F8  120A  158A  	fcall	_send_a_character
  4148  0831                     l3450:	
  4149                           
  4150                           ;./LCD.c: 235:     }
  4151  0831  3001               	movlw	1
  4152  0832  1283               	bcf	3,5	;RP0=0, select bank0
  4153  0833  1303               	bcf	3,6	;RP1=0, select bank0
  4154  0834  00A0               	movwf	??_PrintLINE2
  4155  0835  0820               	movf	??_PrintLINE2,w
  4156  0836  07F7               	addwf	PrintLINE2@place,f
  4157  0837                     l3452:	
  4158  0837  0877               	movf	PrintLINE2@place,w
  4159  0838  0776               	addwf	PrintLINE2@ptrSTR,w
  4160  0839  0084               	movwf	4
  4161  083A  160A  118A  2000  120A  158A  	fcall	stringdir
  4162  083F  3A00               	xorlw	0
  4163  0840  1903               	skipnz
  4164  0841  2843               	goto	u4281
  4165  0842  2844               	goto	u4280
  4166  0843                     u4281:	
  4167  0843  284A               	goto	l175
  4168  0844                     u4280:	
  4169  0844                     l3454:	
  4170  0844  0875               	movf	PrintLINE2@length,w
  4171  0845  0277               	subwf	PrintLINE2@place,w
  4172  0846  1C03               	skipc
  4173  0847  2849               	goto	u4291
  4174  0848  284A               	goto	u4290
  4175  0849                     u4291:	
  4176  0849  2824               	goto	l3448
  4177  084A                     u4290:	
  4178  084A                     l175:	
  4179  084A  0008               	return
  4180  084B                     __end_of_PrintLINE2:	
  4181                           
  4182                           	psect	text13
  4183  16DE                     __ptext13:	
  4184 ;; *************** function _PrintLINE1 *****************
  4185 ;; Defined at:
  4186 ;;		line 209 in file "./LCD.c"
  4187 ;; Parameters:    Size  Location     Type
  4188 ;;  place           1    wreg     unsigned char 
  4189 ;;  length          1    5[COMMON] unsigned char 
  4190 ;;  ptrSTR          1    6[COMMON] PTR unsigned char 
  4191 ;;		 -> STR_8(14), STR_6(14), STR_4(10), STR_2(12), 
  4192 ;;		 -> STR_1(10), 
  4193 ;; Auto vars:     Size  Location     Type
  4194 ;;  place           1    7[COMMON] unsigned char 
  4195 ;; Return value:  Size  Location     Type
  4196 ;;                  1    wreg      void 
  4197 ;; Registers used:
  4198 ;;		wreg, fsr0l, fsr0h, status,2, status,0, pclath, cstack
  4199 ;; Tracked objects:
  4200 ;;		On entry : 0/0
  4201 ;;		On exit  : 0/0
  4202 ;;		Unchanged: 0/0
  4203 ;; Data sizes:     COMMON   BANK0   BANK1   BANK3   BANK2
  4204 ;;      Params:         2       0       0       0       0
  4205 ;;      Locals:         1       0       0       0       0
  4206 ;;      Temps:          0       3       0       0       0
  4207 ;;      Totals:         3       3       0       0       0
  4208 ;;Total ram usage:        6 bytes
  4209 ;; Hardware stack levels used:    1
  4210 ;; Hardware stack levels required when called:    2
  4211 ;; This function calls:
  4212 ;;		_send_a_character
  4213 ;;		_send_a_command
  4214 ;; This function is called by:
  4215 ;;		_ONStatus
  4216 ;;		_PAUSED
  4217 ;;		_MDONE
  4218 ;;		_main
  4219 ;; This function uses a non-reentrant model
  4220 ;;
  4221                           
  4222                           
  4223                           ;psect for function _PrintLINE1
  4224  16DE                     _PrintLINE1:	
  4225                           
  4226                           ;incstack = 0
  4227                           ; Regs used in _PrintLINE1: [wreg-fsr0h+status,2+status,0+pclath+cstack]
  4228                           ;PrintLINE1@place stored from wreg
  4229  16DE  00F7               	movwf	PrintLINE1@place
  4230  16DF                     l3416:	
  4231                           
  4232                           ;./LCD.c: 210:     TRISD &=0x00;
  4233  16DF  1683               	bsf	3,5	;RP0=1, select bank1
  4234  16E0  1303               	bcf	3,6	;RP1=0, select bank1
  4235  16E1  0188               	clrf	8	;volatile
  4236  16E2                     l3418:	
  4237                           
  4238                           ;./LCD.c: 211:     TRISE1 &=0;
  4239  16E2  1089               	bcf	9,1	;volatile
  4240  16E3                     l3420:	
  4241                           
  4242                           ;./LCD.c: 212:     TRISE2 &=0;
  4243  16E3  1109               	bcf	9,2	;volatile
  4244  16E4                     l3422:	
  4245                           
  4246                           ;./LCD.c: 213:     _delay((unsigned long)((70)*(16000000UL/4000.0)));
  4247  16E4  3002               	movlw	2
  4248  16E5  1283               	bcf	3,5	;RP0=0, select bank0
  4249  16E6  1303               	bcf	3,6	;RP1=0, select bank0
  4250  16E7  00A2               	movwf	??_PrintLINE1+2
  4251  16E8  306C               	movlw	108
  4252  16E9  00A1               	movwf	??_PrintLINE1+1
  4253  16EA  309F               	movlw	159
  4254  16EB  00A0               	movwf	??_PrintLINE1
  4255  16EC                     u6387:	
  4256  16EC  0BA0               	decfsz	??_PrintLINE1,f
  4257  16ED  2EEC               	goto	u6387
  4258  16EE  0BA1               	decfsz	??_PrintLINE1+1,f
  4259  16EF  2EEC               	goto	u6387
  4260  16F0  0BA2               	decfsz	??_PrintLINE1+2,f
  4261  16F1  2EEC               	goto	u6387
  4262  16F2                     l3424:	
  4263                           
  4264                           ;./LCD.c: 214:     send_a_command(0x80+place);
  4265  16F2  0877               	movf	PrintLINE1@place,w
  4266  16F3  3E80               	addlw	128
  4267  16F4  160A  118A  23E3  160A  118A  	fcall	_send_a_command
  4268  16F9                     l3426:	
  4269                           
  4270                           ;./LCD.c: 215:     send_a_command(0x0C);
  4271  16F9  300C               	movlw	12
  4272  16FA  160A  118A  23E3  160A  118A  	fcall	_send_a_command
  4273                           
  4274                           ;./LCD.c: 216:     for (; ((*(ptrSTR+place))!='\0')&&(place<length);place++){
  4275  16FF  2F13               	goto	l3432
  4276  1700                     l3428:	
  4277                           
  4278                           ;./LCD.c: 218:         send_a_character(ptrSTR[place]);
  4279  1700  0877               	movf	PrintLINE1@place,w
  4280  1701  0776               	addwf	PrintLINE1@ptrSTR,w
  4281  1702  0084               	movwf	4
  4282  1703  160A  118A  2000  160A  118A  	fcall	stringdir
  4283  1708  160A  118A  23F8  160A  118A  	fcall	_send_a_character
  4284  170D                     l3430:	
  4285                           
  4286                           ;./LCD.c: 220:     }
  4287  170D  3001               	movlw	1
  4288  170E  1283               	bcf	3,5	;RP0=0, select bank0
  4289  170F  1303               	bcf	3,6	;RP1=0, select bank0
  4290  1710  00A0               	movwf	??_PrintLINE1
  4291  1711  0820               	movf	??_PrintLINE1,w
  4292  1712  07F7               	addwf	PrintLINE1@place,f
  4293  1713                     l3432:	
  4294  1713  0877               	movf	PrintLINE1@place,w
  4295  1714  0776               	addwf	PrintLINE1@ptrSTR,w
  4296  1715  0084               	movwf	4
  4297  1716  160A  118A  2000  160A  118A  	fcall	stringdir
  4298  171B  3A00               	xorlw	0
  4299  171C  1903               	skipnz
  4300  171D  2F1F               	goto	u4261
  4301  171E  2F20               	goto	u4260
  4302  171F                     u4261:	
  4303  171F  2F26               	goto	l167
  4304  1720                     u4260:	
  4305  1720                     l3434:	
  4306  1720  0875               	movf	PrintLINE1@length,w
  4307  1721  0277               	subwf	PrintLINE1@place,w
  4308  1722  1C03               	skipc
  4309  1723  2F25               	goto	u4271
  4310  1724  2F26               	goto	u4270
  4311  1725                     u4271:	
  4312  1725  2F00               	goto	l3428
  4313  1726                     u4270:	
  4314  1726                     l167:	
  4315  1726  0008               	return
  4316  1727                     __end_of_PrintLINE1:	
  4317                           
  4318                           	psect	text14
  4319  13AB                     __ptext14:	
  4320 ;; *************** function _LampON *****************
  4321 ;; Defined at:
  4322 ;;		line 127 in file "./MStatus.c"
  4323 ;; Parameters:    Size  Location     Type
  4324 ;;  LampF           1    wreg     unsigned char 
  4325 ;; Auto vars:     Size  Location     Type
  4326 ;;  LampF           1    2[COMMON] unsigned char 
  4327 ;; Return value:  Size  Location     Type
  4328 ;;                  1    wreg      void 
  4329 ;; Registers used:
  4330 ;;		wreg, status,2, status,0
  4331 ;; Tracked objects:
  4332 ;;		On entry : 0/0
  4333 ;;		On exit  : 0/0
  4334 ;;		Unchanged: 0/0
  4335 ;; Data sizes:     COMMON   BANK0   BANK1   BANK3   BANK2
  4336 ;;      Params:         0       0       0       0       0
  4337 ;;      Locals:         1       0       0       0       0
  4338 ;;      Temps:          0       0       0       0       0
  4339 ;;      Totals:         1       0       0       0       0
  4340 ;;Total ram usage:        1 bytes
  4341 ;; Hardware stack levels used:    1
  4342 ;; Hardware stack levels required when called:    1
  4343 ;; This function calls:
  4344 ;;		Nothing
  4345 ;; This function is called by:
  4346 ;;		_ONStatus
  4347 ;;		_PAUSED
  4348 ;;		_MDONE
  4349 ;; This function uses a non-reentrant model
  4350 ;;
  4351                           
  4352                           
  4353                           ;psect for function _LampON
  4354  13AB                     _LampON:	
  4355                           
  4356                           ;incstack = 0
  4357                           ; Regs used in _LampON: [wreg+status,2+status,0]
  4358                           ;LampON@LampF stored from wreg
  4359  13AB  00F2               	movwf	LampON@LampF
  4360  13AC                     l3456:	
  4361                           
  4362                           ;./MStatus.c: 127: void LampON(unsigned char LampF);./MStatus.c: 128: {;./MStatus.c: 129
      +                          :     if(LampF==1)
  4363  13AC  0372               	decf	LampON@LampF,w
  4364  13AD  1D03               	btfss	3,2
  4365  13AE  2BB0               	goto	u4301
  4366  13AF  2BB1               	goto	u4300
  4367  13B0                     u4301:	
  4368  13B0  2BB8               	goto	l272
  4369  13B1                     u4300:	
  4370  13B1                     l3458:	
  4371                           
  4372                           ;./MStatus.c: 130:     {;./MStatus.c: 131:          TRISEbits.TRISE0=0;
  4373  13B1  1683               	bsf	3,5	;RP0=1, select bank1
  4374  13B2  1303               	bcf	3,6	;RP1=0, select bank1
  4375  13B3  1009               	bcf	9,0	;volatile
  4376                           
  4377                           ;./MStatus.c: 132:          PORTEbits.RE0|=1;
  4378  13B4  1283               	bcf	3,5	;RP0=0, select bank0
  4379  13B5  1303               	bcf	3,6	;RP1=0, select bank0
  4380  13B6  1409               	bsf	9,0	;volatile
  4381                           
  4382                           ;./MStatus.c: 133:     }
  4383  13B7  2BBB               	goto	l274
  4384  13B8                     l272:	
  4385                           ;./MStatus.c: 134:     else
  4386                           
  4387                           
  4388                           ;./MStatus.c: 135:     {;./MStatus.c: 137:          PORTEbits.RE0&=0;
  4389  13B8  1283               	bcf	3,5	;RP0=0, select bank0
  4390  13B9  1303               	bcf	3,6	;RP1=0, select bank0
  4391  13BA  1009               	bcf	9,0	;volatile
  4392  13BB                     l274:	
  4393  13BB  0008               	return
  4394  13BC                     __end_of_LampON:	
  4395                           
  4396                           	psect	text15
  4397  1391                     __ptext15:	
  4398 ;; *************** function _InitTimer *****************
  4399 ;; Defined at:
  4400 ;;		line 39 in file "./TimerDelay.c"
  4401 ;; Parameters:    Size  Location     Type
  4402 ;;		None
  4403 ;; Auto vars:     Size  Location     Type
  4404 ;;		None
  4405 ;; Return value:  Size  Location     Type
  4406 ;;                  1    wreg      void 
  4407 ;; Registers used:
  4408 ;;		wreg
  4409 ;; Tracked objects:
  4410 ;;		On entry : 0/0
  4411 ;;		On exit  : 0/0
  4412 ;;		Unchanged: 0/0
  4413 ;; Data sizes:     COMMON   BANK0   BANK1   BANK3   BANK2
  4414 ;;      Params:         0       0       0       0       0
  4415 ;;      Locals:         0       0       0       0       0
  4416 ;;      Temps:          0       0       0       0       0
  4417 ;;      Totals:         0       0       0       0       0
  4418 ;;Total ram usage:        0 bytes
  4419 ;; Hardware stack levels used:    1
  4420 ;; Hardware stack levels required when called:    1
  4421 ;; This function calls:
  4422 ;;		Nothing
  4423 ;; This function is called by:
  4424 ;;		_ONStatus
  4425 ;; This function uses a non-reentrant model
  4426 ;;
  4427                           
  4428                           
  4429                           ;psect for function _InitTimer
  4430  1391                     _InitTimer:	
  4431  1391                     l2318:	
  4432                           ;incstack = 0
  4433                           ; Regs used in _InitTimer: [wreg]
  4434                           
  4435                           
  4436                           ;./TimerDelay.c: 41:     T1CON = (1<<5) | (1<<4);
  4437  1391  3030               	movlw	48
  4438  1392  1283               	bcf	3,5	;RP0=0, select bank0
  4439  1393  1303               	bcf	3,6	;RP1=0, select bank0
  4440  1394  0090               	movwf	16	;volatile
  4441  1395                     l2320:	
  4442                           
  4443                           ;./TimerDelay.c: 42:     TMR1IE=1;
  4444  1395  1683               	bsf	3,5	;RP0=1, select bank1
  4445  1396  1303               	bcf	3,6	;RP1=0, select bank1
  4446  1397  140C               	bsf	12,0	;volatile
  4447  1398                     l2322:	
  4448                           
  4449                           ;./TimerDelay.c: 43:     GIE=1;
  4450  1398  178B               	bsf	11,7	;volatile
  4451  1399                     l2324:	
  4452                           
  4453                           ;./TimerDelay.c: 44:     PEIE=1;
  4454  1399  170B               	bsf	11,6	;volatile
  4455  139A                     l218:	
  4456  139A  0008               	return
  4457  139B                     __end_of_InitTimer:	
  4458                           
  4459                           	psect	text16
  4460  15CC                     __ptext16:	
  4461 ;; *************** function _Move_Cursor_L *****************
  4462 ;; Defined at:
  4463 ;;		line 53 in file "./LCD.c"
  4464 ;; Parameters:    Size  Location     Type
  4465 ;;  NumShiftingL    1    wreg     unsigned char 
  4466 ;; Auto vars:     Size  Location     Type
  4467 ;;  NumShiftingL    1    0[BANK0 ] unsigned char 
  4468 ;;  i               1    1[BANK0 ] unsigned char 
  4469 ;; Return value:  Size  Location     Type
  4470 ;;                  1    wreg      void 
  4471 ;; Registers used:
  4472 ;;		wreg, status,2, status,0, pclath, cstack
  4473 ;; Tracked objects:
  4474 ;;		On entry : 0/0
  4475 ;;		On exit  : 0/0
  4476 ;;		Unchanged: 0/0
  4477 ;; Data sizes:     COMMON   BANK0   BANK1   BANK3   BANK2
  4478 ;;      Params:         0       0       0       0       0
  4479 ;;      Locals:         0       2       0       0       0
  4480 ;;      Temps:          3       0       0       0       0
  4481 ;;      Totals:         3       2       0       0       0
  4482 ;;Total ram usage:        5 bytes
  4483 ;; Hardware stack levels used:    1
  4484 ;; Hardware stack levels required when called:    2
  4485 ;; This function calls:
  4486 ;;		_send_a_command
  4487 ;; This function is called by:
  4488 ;;		_main
  4489 ;; This function uses a non-reentrant model
  4490 ;;
  4491                           
  4492                           
  4493                           ;psect for function _Move_Cursor_L
  4494  15CC                     _Move_Cursor_L:	
  4495                           
  4496                           ;incstack = 0
  4497                           ; Regs used in _Move_Cursor_L: [wreg+status,2+status,0+pclath+cstack]
  4498                           ;Move_Cursor_L@NumShiftingL stored from wreg
  4499  15CC  1283               	bcf	3,5	;RP0=0, select bank0
  4500  15CD  1303               	bcf	3,6	;RP1=0, select bank0
  4501  15CE  00A0               	movwf	Move_Cursor_L@NumShiftingL
  4502  15CF                     l4024:	
  4503                           
  4504                           ;./LCD.c: 54:     unsigned char i;;./LCD.c: 55:     TRISD &=0x00;
  4505  15CF  1683               	bsf	3,5	;RP0=1, select bank1
  4506  15D0  1303               	bcf	3,6	;RP1=0, select bank1
  4507  15D1  0188               	clrf	8	;volatile
  4508  15D2                     l4026:	
  4509                           
  4510                           ;./LCD.c: 56:     TRISE1 &=0;
  4511  15D2  1089               	bcf	9,1	;volatile
  4512  15D3                     l4028:	
  4513                           
  4514                           ;./LCD.c: 57:     TRISE2 &=0;
  4515  15D3  1109               	bcf	9,2	;volatile
  4516  15D4                     l4030:	
  4517                           
  4518                           ;./LCD.c: 59:     _delay((unsigned long)((60)*(16000000UL/4000.0)));
  4519  15D4  3002               	movlw	2
  4520  15D5  00F7               	movwf	??_Move_Cursor_L+2
  4521  15D6  3038               	movlw	56
  4522  15D7  00F6               	movwf	??_Move_Cursor_L+1
  4523  15D8  30AD               	movlw	173
  4524  15D9  00F5               	movwf	??_Move_Cursor_L
  4525  15DA                     u6397:	
  4526  15DA  0BF5               	decfsz	??_Move_Cursor_L,f
  4527  15DB  2DDA               	goto	u6397
  4528  15DC  0BF6               	decfsz	??_Move_Cursor_L+1,f
  4529  15DD  2DDA               	goto	u6397
  4530  15DE  0BF7               	decfsz	??_Move_Cursor_L+2,f
  4531  15DF  2DDA               	goto	u6397
  4532  15E0                     l4032:	
  4533                           
  4534                           ;./LCD.c: 60:     send_a_command(0x0F);
  4535  15E0  300F               	movlw	15
  4536  15E1  160A  118A  23E3  160A  118A  	fcall	_send_a_command
  4537  15E6                     l4034:	
  4538                           
  4539                           ;./LCD.c: 61:     for(i=0;i<NumShiftingL;i++){
  4540  15E6  1283               	bcf	3,5	;RP0=0, select bank0
  4541  15E7  1303               	bcf	3,6	;RP1=0, select bank0
  4542  15E8  01A1               	clrf	Move_Cursor_L@i
  4543  15E9  2DF6               	goto	l4040
  4544  15EA                     l4036:	
  4545                           
  4546                           ;./LCD.c: 62:     send_a_command(0x10);
  4547  15EA  3010               	movlw	16
  4548  15EB  160A  118A  23E3  160A  118A  	fcall	_send_a_command
  4549  15F0                     l4038:	
  4550                           
  4551                           ;./LCD.c: 63:     }
  4552  15F0  3001               	movlw	1
  4553  15F1  00F5               	movwf	??_Move_Cursor_L
  4554  15F2  0875               	movf	??_Move_Cursor_L,w
  4555  15F3  1283               	bcf	3,5	;RP0=0, select bank0
  4556  15F4  1303               	bcf	3,6	;RP1=0, select bank0
  4557  15F5  07A1               	addwf	Move_Cursor_L@i,f
  4558  15F6                     l4040:	
  4559  15F6  0820               	movf	Move_Cursor_L@NumShiftingL,w
  4560  15F7  0221               	subwf	Move_Cursor_L@i,w
  4561  15F8  1C03               	skipc
  4562  15F9  2DFB               	goto	u5591
  4563  15FA  2DFC               	goto	u5590
  4564  15FB                     u5591:	
  4565  15FB  2DEA               	goto	l4036
  4566  15FC                     u5590:	
  4567  15FC                     l4042:	
  4568                           
  4569                           ;./LCD.c: 64:     send_a_command(0x0F);
  4570  15FC  300F               	movlw	15
  4571  15FD  160A  118A  23E3  160A  118A  	fcall	_send_a_command
  4572  1602                     l4044:	
  4573                           
  4574                           ;./LCD.c: 65:     _delay((unsigned long)((80)*(16000000UL/4000.0)));
  4575  1602  3002               	movlw	2
  4576  1603  00F7               	movwf	??_Move_Cursor_L+2
  4577  1604  30A0               	movlw	160
  4578  1605  00F6               	movwf	??_Move_Cursor_L+1
  4579  1606  3092               	movlw	146
  4580  1607  00F5               	movwf	??_Move_Cursor_L
  4581  1608                     u6407:	
  4582  1608  0BF5               	decfsz	??_Move_Cursor_L,f
  4583  1609  2E08               	goto	u6407
  4584  160A  0BF6               	decfsz	??_Move_Cursor_L+1,f
  4585  160B  2E08               	goto	u6407
  4586  160C  0BF7               	decfsz	??_Move_Cursor_L+2,f
  4587  160D  2E08               	goto	u6407
  4588  160E  0000               	nop
  4589  160F                     l92:	
  4590  160F  0008               	return
  4591  1610                     __end_of_Move_Cursor_L:	
  4592                           
  4593                           	psect	text17
  4594  084B                     __ptext17:	
  4595 ;; *************** function _LCD_Start *****************
  4596 ;; Defined at:
  4597 ;;		line 85 in file "./LCD.c"
  4598 ;; Parameters:    Size  Location     Type
  4599 ;;		None
  4600 ;; Auto vars:     Size  Location     Type
  4601 ;;  b              16   16[BANK0 ] unsigned char [16]
  4602 ;;  a              16    0[BANK0 ] unsigned char [16]
  4603 ;;  i               1   32[BANK0 ] unsigned char 
  4604 ;; Return value:  Size  Location     Type
  4605 ;;                  1    wreg      void 
  4606 ;; Registers used:
  4607 ;;		wreg, fsr0l, fsr0h, status,2, status,0, pclath, cstack
  4608 ;; Tracked objects:
  4609 ;;		On entry : 0/0
  4610 ;;		On exit  : 0/0
  4611 ;;		Unchanged: 0/0
  4612 ;; Data sizes:     COMMON   BANK0   BANK1   BANK3   BANK2
  4613 ;;      Params:         0       0       0       0       0
  4614 ;;      Locals:         0      33       0       0       0
  4615 ;;      Temps:          4       0       0       0       0
  4616 ;;      Totals:         4      33       0       0       0
  4617 ;;Total ram usage:       37 bytes
  4618 ;; Hardware stack levels used:    1
  4619 ;; Hardware stack levels required when called:    2
  4620 ;; This function calls:
  4621 ;;		_send_a_character
  4622 ;;		_send_a_command
  4623 ;; This function is called by:
  4624 ;;		_main
  4625 ;; This function uses a non-reentrant model
  4626 ;;
  4627                           
  4628                           
  4629                           ;psect for function _LCD_Start
  4630  084B                     _LCD_Start:	
  4631  084B                     l4046:	
  4632                           ;incstack = 0
  4633                           ; Regs used in _LCD_Start: [wreg-fsr0h+status,2+status,0+pclath+cstack]
  4634                           
  4635                           
  4636                           ;./LCD.c: 86:     unsigned char a[16] = "Welcome!       ." ;
  4637  084B  3020               	movlw	LCD_Start@a& (0+255)
  4638  084C  0084               	movwf	4
  4639  084D  30C0               	movlw	low LCD_Start@F891
  4640  084E  00F5               	movwf	??_LCD_Start
  4641  084F  0804               	movf	4,w
  4642  0850  00F6               	movwf	??_LCD_Start+1
  4643  0851  3010               	movlw	16
  4644  0852  00F7               	movwf	??_LCD_Start+2
  4645  0853                     u5600:	
  4646  0853  0875               	movf	??_LCD_Start,w
  4647  0854  0084               	movwf	4
  4648  0855  1383               	bcf	3,7	;select IRP bank1
  4649  0856  0800               	movf	0,w
  4650  0857  00F8               	movwf	??_LCD_Start+3
  4651  0858  0AF5               	incf	??_LCD_Start,f
  4652  0859  0876               	movf	??_LCD_Start+1,w
  4653  085A  0084               	movwf	4
  4654  085B  0878               	movf	??_LCD_Start+3,w
  4655  085C  0080               	movwf	0
  4656  085D  0AF6               	incf	??_LCD_Start+1,f
  4657  085E  0BF7               	decfsz	??_LCD_Start+2,f
  4658  085F  2853               	goto	u5600
  4659                           
  4660                           ;./LCD.c: 87:     unsigned char b[16] = "Microwave  P1.3M" ;
  4661  0860  3030               	movlw	LCD_Start@b& (0+255)
  4662  0861  0084               	movwf	4
  4663  0862  30B0               	movlw	low LCD_Start@F893
  4664  0863  00F5               	movwf	??_LCD_Start
  4665  0864  0804               	movf	4,w
  4666  0865  00F6               	movwf	??_LCD_Start+1
  4667  0866  3010               	movlw	16
  4668  0867  00F7               	movwf	??_LCD_Start+2
  4669  0868                     u5610:	
  4670  0868  0875               	movf	??_LCD_Start,w
  4671  0869  0084               	movwf	4
  4672  086A  1383               	bcf	3,7	;select IRP bank1
  4673  086B  0800               	movf	0,w
  4674  086C  00F8               	movwf	??_LCD_Start+3
  4675  086D  0AF5               	incf	??_LCD_Start,f
  4676  086E  0876               	movf	??_LCD_Start+1,w
  4677  086F  0084               	movwf	4
  4678  0870  0878               	movf	??_LCD_Start+3,w
  4679  0871  0080               	movwf	0
  4680  0872  0AF6               	incf	??_LCD_Start+1,f
  4681  0873  0BF7               	decfsz	??_LCD_Start+2,f
  4682  0874  2868               	goto	u5610
  4683  0875                     l4048:	
  4684  0875                     l4050:	
  4685                           
  4686                           ;./LCD.c: 89:     send_a_command(0x01);
  4687  0875  3001               	movlw	1
  4688  0876  160A  118A  23E3  120A  158A  	fcall	_send_a_command
  4689  087B                     l4052:	
  4690                           
  4691                           ;./LCD.c: 90:     send_a_command(0x0E);
  4692  087B  300E               	movlw	14
  4693  087C  160A  118A  23E3  120A  158A  	fcall	_send_a_command
  4694  0881                     l4054:	
  4695                           
  4696                           ;./LCD.c: 91:     _delay((unsigned long)((10)*(16000000UL/4000.0)));
  4697  0881  3034               	movlw	52
  4698  0882  00F6               	movwf	??_LCD_Start+1
  4699  0883  30F1               	movlw	241
  4700  0884  00F5               	movwf	??_LCD_Start
  4701  0885                     u6417:	
  4702  0885  0BF5               	decfsz	??_LCD_Start,f
  4703  0886  2885               	goto	u6417
  4704  0887  0BF6               	decfsz	??_LCD_Start+1,f
  4705  0888  2885               	goto	u6417
  4706  0889  288A               	nop2
  4707  088A                     l4056:	
  4708                           
  4709                           ;./LCD.c: 94:     for (i=0; (i<=15) && (*(a+i)!='\0');i++){
  4710  088A  1283               	bcf	3,5	;RP0=0, select bank0
  4711  088B  1303               	bcf	3,6	;RP1=0, select bank0
  4712  088C  01C0               	clrf	LCD_Start@i
  4713  088D  289D               	goto	l4062
  4714  088E                     l4058:	
  4715                           
  4716                           ;./LCD.c: 95:         send_a_character(a[i]);
  4717  088E  0840               	movf	LCD_Start@i,w
  4718  088F  3E20               	addlw	(low (LCD_Start@a| 0))& (0+255)
  4719  0890  0084               	movwf	4
  4720  0891  0800               	movf	0,w
  4721  0892  160A  118A  23F8  120A  158A  	fcall	_send_a_character
  4722  0897                     l4060:	
  4723                           
  4724                           ;./LCD.c: 96:     }
  4725  0897  3001               	movlw	1
  4726  0898  00F5               	movwf	??_LCD_Start
  4727  0899  0875               	movf	??_LCD_Start,w
  4728  089A  1283               	bcf	3,5	;RP0=0, select bank0
  4729  089B  1303               	bcf	3,6	;RP1=0, select bank0
  4730  089C  07C0               	addwf	LCD_Start@i,f
  4731  089D                     l4062:	
  4732  089D  3010               	movlw	16
  4733  089E  0240               	subwf	LCD_Start@i,w
  4734  089F  1803               	skipnc
  4735  08A0  28A2               	goto	u5621
  4736  08A1  28A3               	goto	u5620
  4737  08A2                     u5621:	
  4738  08A2  28AC               	goto	l4066
  4739  08A3                     u5620:	
  4740  08A3                     l4064:	
  4741  08A3  0840               	movf	LCD_Start@i,w
  4742  08A4  3E20               	addlw	(low (LCD_Start@a| 0))& (0+255)
  4743  08A5  0084               	movwf	4
  4744  08A6  1383               	bcf	3,7	;select IRP bank0
  4745  08A7  0800               	movf	0,w
  4746  08A8  1D03               	btfss	3,2
  4747  08A9  28AB               	goto	u5631
  4748  08AA  28AC               	goto	u5630
  4749  08AB                     u5631:	
  4750  08AB  288E               	goto	l4058
  4751  08AC                     u5630:	
  4752  08AC                     l4066:	
  4753                           
  4754                           ;./LCD.c: 97:           send_a_command(0xC0);
  4755  08AC  30C0               	movlw	192
  4756  08AD  160A  118A  23E3  120A  158A  	fcall	_send_a_command
  4757  08B2                     l4068:	
  4758                           
  4759                           ;./LCD.c: 98:      for (i=0; (i<=15) && (*(b+i)!='\0');i++){
  4760  08B2  1283               	bcf	3,5	;RP0=0, select bank0
  4761  08B3  1303               	bcf	3,6	;RP1=0, select bank0
  4762  08B4  01C0               	clrf	LCD_Start@i
  4763  08B5  28C5               	goto	l4074
  4764  08B6                     l4070:	
  4765                           
  4766                           ;./LCD.c: 99:         send_a_character(b[i]);
  4767  08B6  0840               	movf	LCD_Start@i,w
  4768  08B7  3E30               	addlw	(low (LCD_Start@b| 0))& (0+255)
  4769  08B8  0084               	movwf	4
  4770  08B9  0800               	movf	0,w
  4771  08BA  160A  118A  23F8  120A  158A  	fcall	_send_a_character
  4772  08BF                     l4072:	
  4773                           
  4774                           ;./LCD.c: 100:     }
  4775  08BF  3001               	movlw	1
  4776  08C0  00F5               	movwf	??_LCD_Start
  4777  08C1  0875               	movf	??_LCD_Start,w
  4778  08C2  1283               	bcf	3,5	;RP0=0, select bank0
  4779  08C3  1303               	bcf	3,6	;RP1=0, select bank0
  4780  08C4  07C0               	addwf	LCD_Start@i,f
  4781  08C5                     l4074:	
  4782  08C5  3010               	movlw	16
  4783  08C6  0240               	subwf	LCD_Start@i,w
  4784  08C7  1803               	skipnc
  4785  08C8  28CA               	goto	u5641
  4786  08C9  28CB               	goto	u5640
  4787  08CA                     u5641:	
  4788  08CA  28D4               	goto	l114
  4789  08CB                     u5640:	
  4790  08CB                     l4076:	
  4791  08CB  0840               	movf	LCD_Start@i,w
  4792  08CC  3E30               	addlw	(low (LCD_Start@b| 0))& (0+255)
  4793  08CD  0084               	movwf	4
  4794  08CE  1383               	bcf	3,7	;select IRP bank0
  4795  08CF  0800               	movf	0,w
  4796  08D0  1D03               	btfss	3,2
  4797  08D1  28D3               	goto	u5651
  4798  08D2  28D4               	goto	u5650
  4799  08D3                     u5651:	
  4800  08D3  28B6               	goto	l4070
  4801  08D4                     u5650:	
  4802  08D4                     l114:	
  4803  08D4  0008               	return
  4804  08D5                     __end_of_LCD_Start:	
  4805                           
  4806                           	psect	text18
  4807  140E                     __ptext18:	
  4808 ;; *************** function _LCD_Print_Hex *****************
  4809 ;; Defined at:
  4810 ;;		line 117 in file "./LCD.c"
  4811 ;; Parameters:    Size  Location     Type
  4812 ;;  KEY             1    wreg     unsigned char 
  4813 ;; Auto vars:     Size  Location     Type
  4814 ;;  KEY             1    7[COMMON] unsigned char 
  4815 ;; Return value:  Size  Location     Type
  4816 ;;                  1    wreg      void 
  4817 ;; Registers used:
  4818 ;;		wreg, status,2, status,0, pclath, cstack
  4819 ;; Tracked objects:
  4820 ;;		On entry : 0/0
  4821 ;;		On exit  : 0/0
  4822 ;;		Unchanged: 0/0
  4823 ;; Data sizes:     COMMON   BANK0   BANK1   BANK3   BANK2
  4824 ;;      Params:         0       0       0       0       0
  4825 ;;      Locals:         1       0       0       0       0
  4826 ;;      Temps:          2       0       0       0       0
  4827 ;;      Totals:         3       0       0       0       0
  4828 ;;Total ram usage:        3 bytes
  4829 ;; Hardware stack levels used:    1
  4830 ;; Hardware stack levels required when called:    2
  4831 ;; This function calls:
  4832 ;;		_send_a_character
  4833 ;; This function is called by:
  4834 ;;		_main
  4835 ;; This function uses a non-reentrant model
  4836 ;;
  4837                           
  4838                           
  4839                           ;psect for function _LCD_Print_Hex
  4840  140E                     _LCD_Print_Hex:	
  4841                           
  4842                           ;incstack = 0
  4843                           ; Regs used in _LCD_Print_Hex: [wreg+status,2+status,0+pclath+cstack]
  4844                           ;LCD_Print_Hex@KEY stored from wreg
  4845  140E  00F7               	movwf	LCD_Print_Hex@KEY
  4846  140F                     l4078:	
  4847                           
  4848                           ;./LCD.c: 118:     TRISD &=0x00;
  4849  140F  1683               	bsf	3,5	;RP0=1, select bank1
  4850  1410  1303               	bcf	3,6	;RP1=0, select bank1
  4851  1411  0188               	clrf	8	;volatile
  4852  1412                     l4080:	
  4853                           
  4854                           ;./LCD.c: 119:     TRISE1 &=0;
  4855  1412  1089               	bcf	9,1	;volatile
  4856  1413                     l4082:	
  4857                           
  4858                           ;./LCD.c: 120:     TRISE2 &=0;
  4859  1413  1109               	bcf	9,2	;volatile
  4860  1414                     l4084:	
  4861                           
  4862                           ;./LCD.c: 122:     _delay((unsigned long)((3)*(16000000UL/4000.0)));
  4863  1414  3010               	movlw	16
  4864  1415  00F6               	movwf	??_LCD_Print_Hex+1
  4865  1416  3094               	movlw	148
  4866  1417  00F5               	movwf	??_LCD_Print_Hex
  4867  1418                     u6427:	
  4868  1418  0BF5               	decfsz	??_LCD_Print_Hex,f
  4869  1419  2C18               	goto	u6427
  4870  141A  0BF6               	decfsz	??_LCD_Print_Hex+1,f
  4871  141B  2C18               	goto	u6427
  4872  141C  0000               	nop
  4873  141D                     l4086:	
  4874                           
  4875                           ;./LCD.c: 126:     if (KEY !=0xFF){
  4876  141D  0A77               	incf	LCD_Print_Hex@KEY,w
  4877  141E  1903               	btfsc	3,2
  4878  141F  2C21               	goto	u5661
  4879  1420  2C22               	goto	u5660
  4880  1421                     u5661:	
  4881  1421  2C31               	goto	l121
  4882  1422                     u5660:	
  4883  1422                     l4088:	
  4884                           
  4885                           ;./LCD.c: 127:             send_a_character(KEY);
  4886  1422  0877               	movf	LCD_Print_Hex@KEY,w
  4887  1423  160A  118A  23F8  160A  118A  	fcall	_send_a_character
  4888  1428                     l4090:	
  4889                           
  4890                           ;./LCD.c: 128:            _delay((unsigned long)((10)*(16000000UL/4000.0)));
  4891  1428  3034               	movlw	52
  4892  1429  00F6               	movwf	??_LCD_Print_Hex+1
  4893  142A  30F1               	movlw	241
  4894  142B  00F5               	movwf	??_LCD_Print_Hex
  4895  142C                     u6437:	
  4896  142C  0BF5               	decfsz	??_LCD_Print_Hex,f
  4897  142D  2C2C               	goto	u6437
  4898  142E  0BF6               	decfsz	??_LCD_Print_Hex+1,f
  4899  142F  2C2C               	goto	u6437
  4900  1430  2C31               	nop2
  4901  1431                     l121:	
  4902  1431  0008               	return
  4903  1432                     __end_of_LCD_Print_Hex:	
  4904                           
  4905                           	psect	text19
  4906  0ADB                     __ptext19:	
  4907 ;; *************** function _GetKeyPressed *****************
  4908 ;; Defined at:
  4909 ;;		line 34 in file "./Keypad.c"
  4910 ;; Parameters:    Size  Location     Type
  4911 ;;		None
  4912 ;; Auto vars:     Size  Location     Type
  4913 ;;  c               1    5[COMMON] unsigned char 
  4914 ;; Return value:  Size  Location     Type
  4915 ;;                  1    wreg      unsigned char 
  4916 ;; Registers used:
  4917 ;;		wreg, status,2, status,0
  4918 ;; Tracked objects:
  4919 ;;		On entry : 0/0
  4920 ;;		On exit  : 0/0
  4921 ;;		Unchanged: 0/0
  4922 ;; Data sizes:     COMMON   BANK0   BANK1   BANK3   BANK2
  4923 ;;      Params:         0       0       0       0       0
  4924 ;;      Locals:         1       0       0       0       0
  4925 ;;      Temps:          3       0       0       0       0
  4926 ;;      Totals:         4       0       0       0       0
  4927 ;;Total ram usage:        4 bytes
  4928 ;; Hardware stack levels used:    1
  4929 ;; Hardware stack levels required when called:    1
  4930 ;; This function calls:
  4931 ;;		Nothing
  4932 ;; This function is called by:
  4933 ;;		_main
  4934 ;; This function uses a non-reentrant model
  4935 ;;
  4936                           
  4937                           
  4938                           ;psect for function _GetKeyPressed
  4939  0ADB                     _GetKeyPressed:	
  4940  0ADB                     l3006:	
  4941                           ;incstack = 0
  4942                           ; Regs used in _GetKeyPressed: [wreg+status,2+status,0]
  4943                           
  4944                           
  4945                           ;./Keypad.c: 37:      _delay((unsigned long)((15)*(16000000UL/4000.0)));
  4946  0ADB  304E               	movlw	78
  4947  0ADC  00F3               	movwf	??_GetKeyPressed+1
  4948  0ADD  30EB               	movlw	235
  4949  0ADE  00F2               	movwf	??_GetKeyPressed
  4950  0ADF                     u6447:	
  4951  0ADF  0BF2               	decfsz	??_GetKeyPressed,f
  4952  0AE0  2ADF               	goto	u6447
  4953  0AE1  0BF3               	decfsz	??_GetKeyPressed+1,f
  4954  0AE2  2ADF               	goto	u6447
  4955                           
  4956                           ;./Keypad.c: 38:     unsigned char c;;./Keypad.c: 40:     TRISD =0x0F;
  4957  0AE3  300F               	movlw	15
  4958  0AE4  1683               	bsf	3,5	;RP0=1, select bank1
  4959  0AE5  1303               	bcf	3,6	;RP1=0, select bank1
  4960  0AE6  0088               	movwf	8	;volatile
  4961                           
  4962                           ;./Keypad.c: 41:     TRISB =0xF8;
  4963  0AE7  30F8               	movlw	248
  4964  0AE8  0086               	movwf	6	;volatile
  4965  0AE9                     l3008:	
  4966                           
  4967                           ;./Keypad.c: 42:         for(c=0;c<3;c++)
  4968  0AE9  01F5               	clrf	GetKeyPressed@c
  4969  0AEA                     l3014:	
  4970                           
  4971                           ;./Keypad.c: 43:         {;./Keypad.c: 44:            PORTB &=~(1<<c);
  4972  0AEA  3001               	movlw	1
  4973  0AEB  00F2               	movwf	??_GetKeyPressed
  4974  0AEC  0A75               	incf	GetKeyPressed@c,w
  4975  0AED  2AF0               	goto	u3654
  4976  0AEE                     u3655:	
  4977  0AEE  1003               	clrc
  4978  0AEF  0DF2               	rlf	??_GetKeyPressed,f
  4979  0AF0                     u3654:	
  4980  0AF0  3EFF               	addlw	-1
  4981  0AF1  1D03               	skipz
  4982  0AF2  2AEE               	goto	u3655
  4983  0AF3  0872               	movf	??_GetKeyPressed,w
  4984  0AF4  3AFF               	xorlw	255
  4985  0AF5  00F3               	movwf	??_GetKeyPressed+1
  4986  0AF6  0873               	movf	??_GetKeyPressed+1,w
  4987  0AF7  1283               	bcf	3,5	;RP0=0, select bank0
  4988  0AF8  0586               	andwf	6,f	;volatile
  4989  0AF9                     l3016:	
  4990                           
  4991                           ;./Keypad.c: 45:            _delay((unsigned long)((70)*(16000000UL/4000.0)));
  4992  0AF9  3002               	movlw	2
  4993  0AFA  00F4               	movwf	??_GetKeyPressed+2
  4994  0AFB  306C               	movlw	108
  4995  0AFC  00F3               	movwf	??_GetKeyPressed+1
  4996  0AFD  309F               	movlw	159
  4997  0AFE  00F2               	movwf	??_GetKeyPressed
  4998  0AFF                     u6457:	
  4999  0AFF  0BF2               	decfsz	??_GetKeyPressed,f
  5000  0B00  2AFF               	goto	u6457
  5001  0B01  0BF3               	decfsz	??_GetKeyPressed+1,f
  5002  0B02  2AFF               	goto	u6457
  5003  0B03  0BF4               	decfsz	??_GetKeyPressed+2,f
  5004  0B04  2AFF               	goto	u6457
  5005  0B05  2B06               	nop2
  5006  0B06                     l3018:	
  5007                           
  5008                           ;./Keypad.c: 46:             if(!(PORTDbits.RD3 ))
  5009  0B06  1283               	bcf	3,5	;RP0=0, select bank0
  5010  0B07  1303               	bcf	3,6	;RP1=0, select bank0
  5011  0B08  1988               	btfsc	8,3	;volatile
  5012  0B09  2B0B               	goto	u3661
  5013  0B0A  2B0C               	goto	u3660
  5014  0B0B                     u3661:	
  5015  0B0B  2B26               	goto	l182
  5016  0B0C                     u3660:	
  5017  0B0C                     l3020:	
  5018                           
  5019                           ;./Keypad.c: 47:             {;./Keypad.c: 48:                 _delay((unsigned long)((5
      +                          0)*(16000000UL/4000.0)));
  5020  0B0C  3002               	movlw	2
  5021  0B0D  00F4               	movwf	??_GetKeyPressed+2
  5022  0B0E  3004               	movlw	4
  5023  0B0F  00F3               	movwf	??_GetKeyPressed+1
  5024  0B10  30BA               	movlw	186
  5025  0B11  00F2               	movwf	??_GetKeyPressed
  5026  0B12                     u6467:	
  5027  0B12  0BF2               	decfsz	??_GetKeyPressed,f
  5028  0B13  2B12               	goto	u6467
  5029  0B14  0BF3               	decfsz	??_GetKeyPressed+1,f
  5030  0B15  2B12               	goto	u6467
  5031  0B16  0BF4               	decfsz	??_GetKeyPressed+2,f
  5032  0B17  2B12               	goto	u6467
  5033  0B18  0000               	nop
  5034  0B19                     l3022:	
  5035                           
  5036                           ;./Keypad.c: 49:                 if(!(PORTDbits.RD3 )){
  5037  0B19  1283               	bcf	3,5	;RP0=0, select bank0
  5038  0B1A  1303               	bcf	3,6	;RP1=0, select bank0
  5039  0B1B  1988               	btfsc	8,3	;volatile
  5040  0B1C  2B1E               	goto	u3671
  5041  0B1D  2B1F               	goto	u3670
  5042  0B1E                     u3671:	
  5043  0B1E  2B26               	goto	l182
  5044  0B1F                     u3670:	
  5045  0B1F                     l184:	
  5046  0B1F  1D88               	btfss	8,3	;volatile
  5047  0B20  2B22               	goto	u3681
  5048  0B21  2B23               	goto	u3680
  5049  0B22                     u3681:	
  5050  0B22  2B1F               	goto	l184
  5051  0B23                     u3680:	
  5052  0B23                     l3026:	
  5053                           
  5054                           ;./Keypad.c: 51:                 return (0x31+c);
  5055  0B23  0875               	movf	GetKeyPressed@c,w
  5056  0B24  3E31               	addlw	49
  5057  0B25  2BAB               	goto	l187
  5058  0B26                     l182:	
  5059                           
  5060                           ;./Keypad.c: 53:           if(!(PORTDbits.RD2))
  5061  0B26  1908               	btfsc	8,2	;volatile
  5062  0B27  2B29               	goto	u3691
  5063  0B28  2B2A               	goto	u3690
  5064  0B29                     u3691:	
  5065  0B29  2B44               	goto	l188
  5066  0B2A                     u3690:	
  5067  0B2A                     l3030:	
  5068                           
  5069                           ;./Keypad.c: 54:              {;./Keypad.c: 55:                _delay((unsigned long)((5
      +                          0)*(16000000UL/4000.0)));
  5070  0B2A  3002               	movlw	2
  5071  0B2B  00F4               	movwf	??_GetKeyPressed+2
  5072  0B2C  3004               	movlw	4
  5073  0B2D  00F3               	movwf	??_GetKeyPressed+1
  5074  0B2E  30BA               	movlw	186
  5075  0B2F  00F2               	movwf	??_GetKeyPressed
  5076  0B30                     u6477:	
  5077  0B30  0BF2               	decfsz	??_GetKeyPressed,f
  5078  0B31  2B30               	goto	u6477
  5079  0B32  0BF3               	decfsz	??_GetKeyPressed+1,f
  5080  0B33  2B30               	goto	u6477
  5081  0B34  0BF4               	decfsz	??_GetKeyPressed+2,f
  5082  0B35  2B30               	goto	u6477
  5083  0B36  0000               	nop
  5084  0B37                     l3032:	
  5085                           
  5086                           ;./Keypad.c: 56:                if(!(PORTDbits.RD2)){
  5087  0B37  1283               	bcf	3,5	;RP0=0, select bank0
  5088  0B38  1303               	bcf	3,6	;RP1=0, select bank0
  5089  0B39  1908               	btfsc	8,2	;volatile
  5090  0B3A  2B3C               	goto	u3701
  5091  0B3B  2B3D               	goto	u3700
  5092  0B3C                     u3701:	
  5093  0B3C  2B44               	goto	l188
  5094  0B3D                     u3700:	
  5095  0B3D                     l190:	
  5096  0B3D  1D08               	btfss	8,2	;volatile
  5097  0B3E  2B40               	goto	u3711
  5098  0B3F  2B41               	goto	u3710
  5099  0B40                     u3711:	
  5100  0B40  2B3D               	goto	l190
  5101  0B41                     u3710:	
  5102  0B41                     l3036:	
  5103                           
  5104                           ;./Keypad.c: 58:              return (0x31+3+c);
  5105  0B41  0875               	movf	GetKeyPressed@c,w
  5106  0B42  3E34               	addlw	52
  5107  0B43  2BAB               	goto	l187
  5108  0B44                     l188:	
  5109                           
  5110                           ;./Keypad.c: 60:             if(!(PORTDbits.RD1 ))
  5111  0B44  1888               	btfsc	8,1	;volatile
  5112  0B45  2B47               	goto	u3721
  5113  0B46  2B48               	goto	u3720
  5114  0B47                     u3721:	
  5115  0B47  2B62               	goto	l193
  5116  0B48                     u3720:	
  5117  0B48                     l3040:	
  5118                           
  5119                           ;./Keypad.c: 61:                 {;./Keypad.c: 62:                  _delay((unsigned lon
      +                          g)((50)*(16000000UL/4000.0)));
  5120  0B48  3002               	movlw	2
  5121  0B49  00F4               	movwf	??_GetKeyPressed+2
  5122  0B4A  3004               	movlw	4
  5123  0B4B  00F3               	movwf	??_GetKeyPressed+1
  5124  0B4C  30BA               	movlw	186
  5125  0B4D  00F2               	movwf	??_GetKeyPressed
  5126  0B4E                     u6487:	
  5127  0B4E  0BF2               	decfsz	??_GetKeyPressed,f
  5128  0B4F  2B4E               	goto	u6487
  5129  0B50  0BF3               	decfsz	??_GetKeyPressed+1,f
  5130  0B51  2B4E               	goto	u6487
  5131  0B52  0BF4               	decfsz	??_GetKeyPressed+2,f
  5132  0B53  2B4E               	goto	u6487
  5133  0B54  0000               	nop
  5134  0B55                     l3042:	
  5135                           
  5136                           ;./Keypad.c: 63:                   if(!(PORTDbits.RD1 )){
  5137  0B55  1283               	bcf	3,5	;RP0=0, select bank0
  5138  0B56  1303               	bcf	3,6	;RP1=0, select bank0
  5139  0B57  1888               	btfsc	8,1	;volatile
  5140  0B58  2B5A               	goto	u3731
  5141  0B59  2B5B               	goto	u3730
  5142  0B5A                     u3731:	
  5143  0B5A  2B62               	goto	l193
  5144  0B5B                     u3730:	
  5145  0B5B                     l195:	
  5146  0B5B  1C88               	btfss	8,1	;volatile
  5147  0B5C  2B5E               	goto	u3741
  5148  0B5D  2B5F               	goto	u3740
  5149  0B5E                     u3741:	
  5150  0B5E  2B5B               	goto	l195
  5151  0B5F                     u3740:	
  5152  0B5F                     l3046:	
  5153                           
  5154                           ;./Keypad.c: 65:                  return (0x31+6+c);
  5155  0B5F  0875               	movf	GetKeyPressed@c,w
  5156  0B60  3E37               	addlw	55
  5157  0B61  2BAB               	goto	l187
  5158  0B62                     l193:	
  5159                           
  5160                           ;./Keypad.c: 67:             if(!(PORTDbits.RD0))
  5161  0B62  1808               	btfsc	8,0	;volatile
  5162  0B63  2B65               	goto	u3751
  5163  0B64  2B66               	goto	u3750
  5164  0B65                     u3751:	
  5165  0B65  2B93               	goto	l3074
  5166  0B66                     u3750:	
  5167  0B66                     l3050:	
  5168                           
  5169                           ;./Keypad.c: 68:                 {;./Keypad.c: 69:                  _delay((unsigned lon
      +                          g)((50)*(16000000UL/4000.0)));
  5170  0B66  3002               	movlw	2
  5171  0B67  00F4               	movwf	??_GetKeyPressed+2
  5172  0B68  3004               	movlw	4
  5173  0B69  00F3               	movwf	??_GetKeyPressed+1
  5174  0B6A  30BA               	movlw	186
  5175  0B6B  00F2               	movwf	??_GetKeyPressed
  5176  0B6C                     u6497:	
  5177  0B6C  0BF2               	decfsz	??_GetKeyPressed,f
  5178  0B6D  2B6C               	goto	u6497
  5179  0B6E  0BF3               	decfsz	??_GetKeyPressed+1,f
  5180  0B6F  2B6C               	goto	u6497
  5181  0B70  0BF4               	decfsz	??_GetKeyPressed+2,f
  5182  0B71  2B6C               	goto	u6497
  5183  0B72  0000               	nop
  5184  0B73                     l3052:	
  5185                           
  5186                           ;./Keypad.c: 70:                  if(!(PORTDbits.RD0)){
  5187  0B73  1283               	bcf	3,5	;RP0=0, select bank0
  5188  0B74  1303               	bcf	3,6	;RP1=0, select bank0
  5189  0B75  1808               	btfsc	8,0	;volatile
  5190  0B76  2B78               	goto	u3761
  5191  0B77  2B79               	goto	u3760
  5192  0B78                     u3761:	
  5193  0B78  2B93               	goto	l3074
  5194  0B79                     u3760:	
  5195  0B79                     l200:	
  5196  0B79  1C08               	btfss	8,0	;volatile
  5197  0B7A  2B7C               	goto	u3771
  5198  0B7B  2B7D               	goto	u3770
  5199  0B7C                     u3771:	
  5200  0B7C  2B79               	goto	l200
  5201  0B7D                     u3770:	
  5202  0B7D                     l3056:	
  5203                           
  5204                           ;./Keypad.c: 72:                 if(c==0){
  5205  0B7D  0875               	movf	GetKeyPressed@c,w
  5206  0B7E  1D03               	btfss	3,2
  5207  0B7F  2B81               	goto	u3781
  5208  0B80  2B82               	goto	u3780
  5209  0B81                     u3781:	
  5210  0B81  2B84               	goto	l3062
  5211  0B82                     u3780:	
  5212  0B82                     l3058:	
  5213                           
  5214                           ;./Keypad.c: 73:                 return (1);
  5215  0B82  3001               	movlw	1
  5216  0B83  2BAB               	goto	l187
  5217  0B84                     l3062:	
  5218                           
  5219                           ;./Keypad.c: 75:                 if(c==1){
  5220  0B84  0375               	decf	GetKeyPressed@c,w
  5221  0B85  1D03               	btfss	3,2
  5222  0B86  2B88               	goto	u3791
  5223  0B87  2B89               	goto	u3790
  5224  0B88                     u3791:	
  5225  0B88  2B8B               	goto	l3068
  5226  0B89                     u3790:	
  5227  0B89                     l3064:	
  5228                           
  5229                           ;./Keypad.c: 76:                     return (0x30);
  5230  0B89  3030               	movlw	48
  5231  0B8A  2BAB               	goto	l187
  5232  0B8B                     l3068:	
  5233                           
  5234                           ;./Keypad.c: 78:                 if(c==2){
  5235  0B8B  3002               	movlw	2
  5236  0B8C  0675               	xorwf	GetKeyPressed@c,w
  5237  0B8D  1D03               	btfss	3,2
  5238  0B8E  2B90               	goto	u3801
  5239  0B8F  2B91               	goto	u3800
  5240  0B90                     u3801:	
  5241  0B90  2B93               	goto	l3074
  5242  0B91                     u3800:	
  5243  0B91                     l3070:	
  5244                           
  5245                           ;./Keypad.c: 79:                     return (2);
  5246  0B91  3002               	movlw	2
  5247  0B92  2BAB               	goto	l187
  5248  0B93                     l3074:	
  5249                           
  5250                           ;./Keypad.c: 82:           PORTB |=(1<<c);
  5251  0B93  3001               	movlw	1
  5252  0B94  00F2               	movwf	??_GetKeyPressed
  5253  0B95  0A75               	incf	GetKeyPressed@c,w
  5254  0B96  2B99               	goto	u3814
  5255  0B97                     u3815:	
  5256  0B97  1003               	clrc
  5257  0B98  0DF2               	rlf	??_GetKeyPressed,f
  5258  0B99                     u3814:	
  5259  0B99  3EFF               	addlw	-1
  5260  0B9A  1D03               	skipz
  5261  0B9B  2B97               	goto	u3815
  5262  0B9C  0872               	movf	??_GetKeyPressed,w
  5263  0B9D  00F3               	movwf	??_GetKeyPressed+1
  5264  0B9E  0873               	movf	??_GetKeyPressed+1,w
  5265  0B9F  0486               	iorwf	6,f	;volatile
  5266                           
  5267                           ;./Keypad.c: 83:         };
  5268  0BA0  3001               	movlw	1
  5269  0BA1  00F2               	movwf	??_GetKeyPressed
  5270  0BA2  0872               	movf	??_GetKeyPressed,w
  5271  0BA3  07F5               	addwf	GetKeyPressed@c,f
  5272  0BA4                     l3076:	
  5273  0BA4  3003               	movlw	3
  5274  0BA5  0275               	subwf	GetKeyPressed@c,w
  5275  0BA6  1C03               	skipc
  5276  0BA7  2BA9               	goto	u3821
  5277  0BA8  2BAA               	goto	u3820
  5278  0BA9                     u3821:	
  5279  0BA9  2AEA               	goto	l3014
  5280  0BAA                     u3820:	
  5281  0BAA                     l3078:	
  5282                           
  5283                           ;./Keypad.c: 85:   return 0XFF;
  5284  0BAA  30FF               	movlw	255
  5285  0BAB                     l187:	
  5286  0BAB  0008               	return
  5287  0BAC                     __end_of_GetKeyPressed:	
  5288                           
  5289                           	psect	text20
  5290  0696                     __ptext20:	
  5291 ;; *************** function _ADC_Read *****************
  5292 ;; Defined at:
  5293 ;;		line 16 in file "./ADC.c"
  5294 ;; Parameters:    Size  Location     Type
  5295 ;;  Temp            1    wreg     PTR unsigned char 
  5296 ;;		 -> Temp(5), 
  5297 ;; Auto vars:     Size  Location     Type
  5298 ;;  Temp            1    0[BANK1 ] PTR unsigned char 
  5299 ;;		 -> Temp(5), 
  5300 ;; Return value:  Size  Location     Type
  5301 ;;                  1    wreg      void 
  5302 ;; Registers used:
  5303 ;;		wreg, fsr0l, fsr0h, status,2, status,0, btemp+1, pclath, cstack
  5304 ;; Tracked objects:
  5305 ;;		On entry : 0/0
  5306 ;;		On exit  : 0/0
  5307 ;;		Unchanged: 0/0
  5308 ;; Data sizes:     COMMON   BANK0   BANK1   BANK3   BANK2
  5309 ;;      Params:         0       0       0       0       0
  5310 ;;      Locals:         0       0       1       0       0
  5311 ;;      Temps:          0       7       0       0       0
  5312 ;;      Totals:         0       7       1       0       0
  5313 ;;Total ram usage:        8 bytes
  5314 ;; Hardware stack levels used:    1
  5315 ;; Hardware stack levels required when called:    3
  5316 ;; This function calls:
  5317 ;;		___fladd
  5318 ;;		___flmul
  5319 ;;		___fltol
  5320 ;;		___lwdiv
  5321 ;;		___lwmod
  5322 ;;		___xxtofl
  5323 ;; This function is called by:
  5324 ;;		_main
  5325 ;; This function uses a non-reentrant model
  5326 ;;
  5327                           
  5328                           
  5329                           ;psect for function _ADC_Read
  5330  0696                     _ADC_Read:	
  5331                           
  5332                           ;incstack = 0
  5333                           ; Regs used in _ADC_Read: [wreg-fsr0h+status,2+status,0+btemp+1+pclath+cstack]
  5334                           ;ADC_Read@Temp stored from wreg
  5335  0696  1683               	bsf	3,5	;RP0=1, select bank1
  5336  0697  1303               	bcf	3,6	;RP1=0, select bank1
  5337  0698  00DC               	movwf	ADC_Read@Temp^(0+128)
  5338  0699                     l4176:	
  5339                           
  5340                           ;./ADC.c: 18:     static unsigned int ADC_Var;;./ADC.c: 20:     ADCON0=0x01;
  5341  0699  3001               	movlw	1
  5342  069A  1283               	bcf	3,5	;RP0=0, select bank0
  5343  069B  1303               	bcf	3,6	;RP1=0, select bank0
  5344  069C  009F               	movwf	31	;volatile
  5345                           
  5346                           ;./ADC.c: 21:     ADCON1=0x02;
  5347  069D  3002               	movlw	2
  5348  069E  1683               	bsf	3,5	;RP0=1, select bank1
  5349  069F  1303               	bcf	3,6	;RP1=0, select bank1
  5350  06A0  009F               	movwf	31	;volatile
  5351                           
  5352                           ;./ADC.c: 23:     _delay((unsigned long)((100)*(16000000UL/4000.0)));
  5353  06A1  3003               	movlw	3
  5354  06A2  1283               	bcf	3,5	;RP0=0, select bank0
  5355  06A3  1303               	bcf	3,6	;RP1=0, select bank0
  5356  06A4  00E3               	movwf	??_ADC_Read+2
  5357  06A5  3008               	movlw	8
  5358  06A6  00E2               	movwf	??_ADC_Read+1
  5359  06A7  3076               	movlw	118
  5360  06A8  00E1               	movwf	??_ADC_Read
  5361  06A9                     u6507:	
  5362  06A9  0BE1               	decfsz	??_ADC_Read,f
  5363  06AA  2EA9               	goto	u6507
  5364  06AB  0BE2               	decfsz	??_ADC_Read+1,f
  5365  06AC  2EA9               	goto	u6507
  5366  06AD  0BE3               	decfsz	??_ADC_Read+2,f
  5367  06AE  2EA9               	goto	u6507
  5368  06AF  0000               	nop
  5369  06B0                     l4178:	
  5370                           
  5371                           ;./ADC.c: 24:     ADCON0bits.GO=1;
  5372  06B0  1283               	bcf	3,5	;RP0=0, select bank0
  5373  06B1  1303               	bcf	3,6	;RP1=0, select bank0
  5374  06B2  151F               	bsf	31,2	;volatile
  5375  06B3                     l210:	
  5376                           ;./ADC.c: 25:     while(ADCON0bits.GO == 1);
  5377                           
  5378  06B3  191F               	btfsc	31,2	;volatile
  5379  06B4  2EB6               	goto	u5791
  5380  06B5  2EB7               	goto	u5790
  5381  06B6                     u5791:	
  5382  06B6  2EB3               	goto	l210
  5383  06B7                     u5790:	
  5384  06B7                     l4180:	
  5385                           
  5386                           ;./ADC.c: 26:     ADC_Var= ((((ADRESH)<<2)|(ADRESL>>6)));
  5387  06B7  1683               	bsf	3,5	;RP0=1, select bank1
  5388  06B8  1303               	bcf	3,6	;RP1=0, select bank1
  5389  06B9  081E               	movf	30,w	;volatile
  5390  06BA  1283               	bcf	3,5	;RP0=0, select bank0
  5391  06BB  1303               	bcf	3,6	;RP1=0, select bank0
  5392  06BC  00E1               	movwf	??_ADC_Read
  5393  06BD  3006               	movlw	6
  5394  06BE                     u5805:	
  5395  06BE  1003               	clrc
  5396  06BF  0CE1               	rrf	??_ADC_Read,f
  5397  06C0  3EFF               	addlw	-1
  5398  06C1  1D03               	skipz
  5399  06C2  2EBE               	goto	u5805
  5400  06C3  0861               	movf	??_ADC_Read,w
  5401  06C4  00E2               	movwf	??_ADC_Read+1
  5402  06C5  01E3               	clrf	??_ADC_Read+2
  5403  06C6  081E               	movf	30,w	;volatile
  5404  06C7  00E4               	movwf	??_ADC_Read+3
  5405  06C8  01E5               	clrf	??_ADC_Read+4
  5406  06C9  1003               	clrc
  5407  06CA  0DE4               	rlf	??_ADC_Read+3,f
  5408  06CB  0DE5               	rlf	??_ADC_Read+4,f
  5409  06CC  1003               	clrc
  5410  06CD  0DE4               	rlf	??_ADC_Read+3,f
  5411  06CE  0DE5               	rlf	??_ADC_Read+4,f
  5412  06CF  0862               	movf	??_ADC_Read+1,w
  5413  06D0  0464               	iorwf	??_ADC_Read+3,w
  5414  06D1  00E6               	movwf	??_ADC_Read+5
  5415  06D2  0863               	movf	??_ADC_Read+2,w
  5416  06D3  0465               	iorwf	??_ADC_Read+4,w
  5417  06D4  00E7               	movwf	??_ADC_Read+6
  5418  06D5  0866               	movf	??_ADC_Read+5,w
  5419  06D6  00EA               	movwf	ADC_Read@ADC_Var
  5420  06D7  0867               	movf	??_ADC_Read+6,w
  5421  06D8  00EB               	movwf	ADC_Read@ADC_Var+1
  5422  06D9                     l4182:	
  5423                           
  5424                           ;./ADC.c: 28:   ADC_Var= ((ADC_Var *( (double) 300/1023))+50);
  5425  06D9  086A               	movf	ADC_Read@ADC_Var,w
  5426  06DA  00F2               	movwf	___xxtofl@val
  5427  06DB  086B               	movf	ADC_Read@ADC_Var+1,w
  5428  06DC  00F3               	movwf	___xxtofl@val+1
  5429  06DD  01F4               	clrf	___xxtofl@val+2
  5430  06DE  01F5               	clrf	___xxtofl@val+3
  5431  06DF  3000               	movlw	0
  5432  06E0  120A  158A  2160  120A  118A  	fcall	___xxtofl
  5433  06E5  0875               	movf	?___xxtofl+3,w
  5434  06E6  1283               	bcf	3,5	;RP0=0, select bank0
  5435  06E7  1303               	bcf	3,6	;RP1=0, select bank0
  5436  06E8  00B1               	movwf	___flmul@a+3
  5437  06E9  0874               	movf	?___xxtofl+2,w
  5438  06EA  00B0               	movwf	___flmul@a+2
  5439  06EB  0873               	movf	?___xxtofl+1,w
  5440  06EC  00AF               	movwf	___flmul@a+1
  5441  06ED  0872               	movf	?___xxtofl,w
  5442  06EE  00AE               	movwf	___flmul@a
  5443  06EF  303E               	movlw	62
  5444  06F0  00AD               	movwf	___flmul@b+3
  5445  06F1  3096               	movlw	150
  5446  06F2  00AC               	movwf	___flmul@b+2
  5447  06F3  3025               	movlw	37
  5448  06F4  00AB               	movwf	___flmul@b+1
  5449  06F5  3089               	movlw	137
  5450  06F6  00AA               	movwf	___flmul@b
  5451  06F7  120A  118A  204D  120A  118A  	fcall	___flmul
  5452  06FC  1283               	bcf	3,5	;RP0=0, select bank0
  5453  06FD  1303               	bcf	3,6	;RP1=0, select bank0
  5454  06FE  082D               	movf	?___flmul+3,w
  5455  06FF  00CB               	movwf	___fladd@a+3
  5456  0700  082C               	movf	?___flmul+2,w
  5457  0701  00CA               	movwf	___fladd@a+2
  5458  0702  082B               	movf	?___flmul+1,w
  5459  0703  00C9               	movwf	___fladd@a+1
  5460  0704  082A               	movf	?___flmul,w
  5461  0705  00C8               	movwf	___fladd@a
  5462  0706  3042               	movlw	66
  5463  0707  00C7               	movwf	___fladd@b+3
  5464  0708  3048               	movlw	72
  5465  0709  00C6               	movwf	___fladd@b+2
  5466  070A  3000               	movlw	0
  5467  070B  00C5               	movwf	___fladd@b+1
  5468  070C  3000               	movlw	0
  5469  070D  00C4               	movwf	___fladd@b
  5470  070E  120A  158A  2578  120A  118A  	fcall	___fladd
  5471  0713  1283               	bcf	3,5	;RP0=0, select bank0
  5472  0714  1303               	bcf	3,6	;RP1=0, select bank0
  5473  0715  0847               	movf	?___fladd+3,w
  5474  0716  00DB               	movwf	___fltol@f1+3
  5475  0717  0846               	movf	?___fladd+2,w
  5476  0718  00DA               	movwf	___fltol@f1+2
  5477  0719  0845               	movf	?___fladd+1,w
  5478  071A  00D9               	movwf	___fltol@f1+1
  5479  071B  0844               	movf	?___fladd,w
  5480  071C  00D8               	movwf	___fltol@f1
  5481  071D  160A  118A  2784  120A  118A  	fcall	___fltol
  5482  0722  1283               	bcf	3,5	;RP0=0, select bank0
  5483  0723  1303               	bcf	3,6	;RP1=0, select bank0
  5484  0724  0859               	movf	?___fltol+1,w
  5485  0725  00EB               	movwf	ADC_Read@ADC_Var+1
  5486  0726  0858               	movf	?___fltol,w
  5487  0727  00EA               	movwf	ADC_Read@ADC_Var
  5488  0728                     l4184:	
  5489                           
  5490                           ;./ADC.c: 29:   Temp[0]=((ADC_Var%1000)/100)+0x30;
  5491  0728  3064               	movlw	100
  5492  0729  00F2               	movwf	___lwdiv@divisor
  5493  072A  3000               	movlw	0
  5494  072B  00F3               	movwf	___lwdiv@divisor+1
  5495  072C  086B               	movf	ADC_Read@ADC_Var+1,w
  5496  072D  00A6               	movwf	___lwmod@dividend+1
  5497  072E  086A               	movf	ADC_Read@ADC_Var,w
  5498  072F  00A5               	movwf	___lwmod@dividend
  5499  0730  30E8               	movlw	232
  5500  0731  00A3               	movwf	___lwmod@divisor
  5501  0732  3003               	movlw	3
  5502  0733  00A4               	movwf	___lwmod@divisor+1
  5503  0734  160A  118A  2514  120A  118A  	fcall	___lwmod
  5504  0739  1283               	bcf	3,5	;RP0=0, select bank0
  5505  073A  1303               	bcf	3,6	;RP1=0, select bank0
  5506  073B  0824               	movf	?___lwmod+1,w
  5507  073C  00F5               	movwf	___lwdiv@dividend+1
  5508  073D  0823               	movf	?___lwmod,w
  5509  073E  00F4               	movwf	___lwdiv@dividend
  5510  073F  160A  118A  2698  120A  118A  	fcall	___lwdiv
  5511  0744  0872               	movf	?___lwdiv,w
  5512  0745  3E30               	addlw	48
  5513  0746  1283               	bcf	3,5	;RP0=0, select bank0
  5514  0747  1303               	bcf	3,6	;RP1=0, select bank0
  5515  0748  00E1               	movwf	??_ADC_Read
  5516  0749  1683               	bsf	3,5	;RP0=1, select bank1
  5517  074A  1303               	bcf	3,6	;RP1=0, select bank1
  5518  074B  085C               	movf	ADC_Read@Temp^(0+128),w
  5519  074C  0084               	movwf	4
  5520  074D  1283               	bcf	3,5	;RP0=0, select bank0
  5521  074E  1303               	bcf	3,6	;RP1=0, select bank0
  5522  074F  0861               	movf	??_ADC_Read,w
  5523  0750  1383               	bcf	3,7	;select IRP bank0
  5524  0751  0080               	movwf	0
  5525  0752                     l4186:	
  5526                           
  5527                           ;./ADC.c: 30:   Temp[1]=((ADC_Var%100)/10)+0x30;
  5528  0752  300A               	movlw	10
  5529  0753  00F2               	movwf	___lwdiv@divisor
  5530  0754  3000               	movlw	0
  5531  0755  00F3               	movwf	___lwdiv@divisor+1
  5532  0756  086B               	movf	ADC_Read@ADC_Var+1,w
  5533  0757  00A6               	movwf	___lwmod@dividend+1
  5534  0758  086A               	movf	ADC_Read@ADC_Var,w
  5535  0759  00A5               	movwf	___lwmod@dividend
  5536  075A  3064               	movlw	100
  5537  075B  00A3               	movwf	___lwmod@divisor
  5538  075C  3000               	movlw	0
  5539  075D  00A4               	movwf	___lwmod@divisor+1
  5540  075E  160A  118A  2514  120A  118A  	fcall	___lwmod
  5541  0763  1283               	bcf	3,5	;RP0=0, select bank0
  5542  0764  1303               	bcf	3,6	;RP1=0, select bank0
  5543  0765  0824               	movf	?___lwmod+1,w
  5544  0766  00F5               	movwf	___lwdiv@dividend+1
  5545  0767  0823               	movf	?___lwmod,w
  5546  0768  00F4               	movwf	___lwdiv@dividend
  5547  0769  160A  118A  2698  120A  118A  	fcall	___lwdiv
  5548  076E  0872               	movf	?___lwdiv,w
  5549  076F  3E30               	addlw	48
  5550  0770  1283               	bcf	3,5	;RP0=0, select bank0
  5551  0771  1303               	bcf	3,6	;RP1=0, select bank0
  5552  0772  00E1               	movwf	??_ADC_Read
  5553  0773  1683               	bsf	3,5	;RP0=1, select bank1
  5554  0774  1303               	bcf	3,6	;RP1=0, select bank1
  5555  0775  0A5C               	incf	ADC_Read@Temp^(0+128),w
  5556  0776  0084               	movwf	4
  5557  0777  1283               	bcf	3,5	;RP0=0, select bank0
  5558  0778  1303               	bcf	3,6	;RP1=0, select bank0
  5559  0779  0861               	movf	??_ADC_Read,w
  5560  077A  1383               	bcf	3,7	;select IRP bank0
  5561  077B  0080               	movwf	0
  5562  077C                     l4188:	
  5563                           
  5564                           ;./ADC.c: 31:   Temp[2]=(ADC_Var%10)+0x30;
  5565  077C  300A               	movlw	10
  5566  077D  00A3               	movwf	___lwmod@divisor
  5567  077E  3000               	movlw	0
  5568  077F  00A4               	movwf	___lwmod@divisor+1
  5569  0780  086B               	movf	ADC_Read@ADC_Var+1,w
  5570  0781  00A6               	movwf	___lwmod@dividend+1
  5571  0782  086A               	movf	ADC_Read@ADC_Var,w
  5572  0783  00A5               	movwf	___lwmod@dividend
  5573  0784  160A  118A  2514  120A  118A  	fcall	___lwmod
  5574  0789  1283               	bcf	3,5	;RP0=0, select bank0
  5575  078A  1303               	bcf	3,6	;RP1=0, select bank0
  5576  078B  0823               	movf	?___lwmod,w
  5577  078C  3E30               	addlw	48
  5578  078D  00E1               	movwf	??_ADC_Read
  5579  078E  1683               	bsf	3,5	;RP0=1, select bank1
  5580  078F  1303               	bcf	3,6	;RP1=0, select bank1
  5581  0790  085C               	movf	ADC_Read@Temp^(0+128),w
  5582  0791  3E02               	addlw	2
  5583  0792  0084               	movwf	4
  5584  0793  1283               	bcf	3,5	;RP0=0, select bank0
  5585  0794  1303               	bcf	3,6	;RP1=0, select bank0
  5586  0795  0861               	movf	??_ADC_Read,w
  5587  0796  1383               	bcf	3,7	;select IRP bank0
  5588  0797  0080               	movwf	0
  5589  0798                     l4190:	
  5590                           
  5591                           ;./ADC.c: 32:   Temp[3]=0b11011110;
  5592  0798  30DE               	movlw	222
  5593  0799  00E1               	movwf	??_ADC_Read
  5594  079A  1683               	bsf	3,5	;RP0=1, select bank1
  5595  079B  1303               	bcf	3,6	;RP1=0, select bank1
  5596  079C  085C               	movf	ADC_Read@Temp^(0+128),w
  5597  079D  3E03               	addlw	3
  5598  079E  0084               	movwf	4
  5599  079F  1283               	bcf	3,5	;RP0=0, select bank0
  5600  07A0  1303               	bcf	3,6	;RP1=0, select bank0
  5601  07A1  0861               	movf	??_ADC_Read,w
  5602  07A2  0080               	movwf	0
  5603  07A3                     l4192:	
  5604                           
  5605                           ;./ADC.c: 33:   Temp[4]='C';
  5606  07A3  3043               	movlw	67
  5607  07A4  00E1               	movwf	??_ADC_Read
  5608  07A5  1683               	bsf	3,5	;RP0=1, select bank1
  5609  07A6  1303               	bcf	3,6	;RP1=0, select bank1
  5610  07A7  085C               	movf	ADC_Read@Temp^(0+128),w
  5611  07A8  3E04               	addlw	4
  5612  07A9  0084               	movwf	4
  5613  07AA  1283               	bcf	3,5	;RP0=0, select bank0
  5614  07AB  1303               	bcf	3,6	;RP1=0, select bank0
  5615  07AC  0861               	movf	??_ADC_Read,w
  5616  07AD  0080               	movwf	0
  5617  07AE                     l213:	
  5618  07AE  0008               	return
  5619  07AF                     __end_of_ADC_Read:	
  5620                           
  5621                           	psect	text21
  5622  0960                     __ptext21:	
  5623 ;; *************** function ___xxtofl *****************
  5624 ;; Defined at:
  5625 ;;		line 10 in file "C:\Program Files (x86)\Microchip\xc8\v2.10\pic\sources\c90\common\xxtofl.c"
  5626 ;; Parameters:    Size  Location     Type
  5627 ;;  sign            1    wreg     unsigned char 
  5628 ;;  val             4    2[COMMON] long 
  5629 ;; Auto vars:     Size  Location     Type
  5630 ;;  sign            1    4[BANK0 ] unsigned char 
  5631 ;;  arg             4    6[BANK0 ] unsigned long 
  5632 ;;  exp             1    5[BANK0 ] unsigned char 
  5633 ;; Return value:  Size  Location     Type
  5634 ;;                  4    2[COMMON] unsigned char 
  5635 ;; Registers used:
  5636 ;;		wreg, status,2, status,0
  5637 ;; Tracked objects:
  5638 ;;		On entry : 0/0
  5639 ;;		On exit  : 0/0
  5640 ;;		Unchanged: 0/0
  5641 ;; Data sizes:     COMMON   BANK0   BANK1   BANK3   BANK2
  5642 ;;      Params:         4       0       0       0       0
  5643 ;;      Locals:         0       6       0       0       0
  5644 ;;      Temps:          0       4       0       0       0
  5645 ;;      Totals:         4      10       0       0       0
  5646 ;;Total ram usage:       14 bytes
  5647 ;; Hardware stack levels used:    1
  5648 ;; Hardware stack levels required when called:    1
  5649 ;; This function calls:
  5650 ;;		Nothing
  5651 ;; This function is called by:
  5652 ;;		_ADC_Read
  5653 ;; This function uses a non-reentrant model
  5654 ;;
  5655                           
  5656                           
  5657                           ;psect for function ___xxtofl
  5658  0960                     ___xxtofl:	
  5659                           
  5660                           ;incstack = 0
  5661                           ; Regs used in ___xxtofl: [wreg+status,2+status,0]
  5662                           ;___xxtofl@sign stored from wreg
  5663  0960  1283               	bcf	3,5	;RP0=0, select bank0
  5664  0961  1303               	bcf	3,6	;RP1=0, select bank0
  5665  0962  00A4               	movwf	___xxtofl@sign
  5666  0963                     l3980:	
  5667  0963  0824               	movf	___xxtofl@sign,w
  5668  0964  1903               	btfsc	3,2
  5669  0965  2967               	goto	u5451
  5670  0966  2968               	goto	u5450
  5671  0967                     u5451:	
  5672  0967  297C               	goto	l3986
  5673  0968                     u5450:	
  5674  0968                     l3982:	
  5675  0968  1FF5               	btfss	___xxtofl@val+3,7
  5676  0969  296B               	goto	u5461
  5677  096A  296C               	goto	u5460
  5678  096B                     u5461:	
  5679  096B  297C               	goto	l3986
  5680  096C                     u5460:	
  5681  096C                     l3984:	
  5682  096C  0972               	comf	___xxtofl@val,w
  5683  096D  00A6               	movwf	___xxtofl@arg
  5684  096E  0973               	comf	___xxtofl@val+1,w
  5685  096F  00A7               	movwf	___xxtofl@arg+1
  5686  0970  0974               	comf	___xxtofl@val+2,w
  5687  0971  00A8               	movwf	___xxtofl@arg+2
  5688  0972  0975               	comf	___xxtofl@val+3,w
  5689  0973  00A9               	movwf	___xxtofl@arg+3
  5690  0974  0AA6               	incf	___xxtofl@arg,f
  5691  0975  1903               	skipnz
  5692  0976  0AA7               	incf	___xxtofl@arg+1,f
  5693  0977  1903               	skipnz
  5694  0978  0AA8               	incf	___xxtofl@arg+2,f
  5695  0979  1903               	skipnz
  5696  097A  0AA9               	incf	___xxtofl@arg+3,f
  5697  097B  2984               	goto	l859
  5698  097C                     l3986:	
  5699  097C  0875               	movf	___xxtofl@val+3,w
  5700  097D  00A9               	movwf	___xxtofl@arg+3
  5701  097E  0874               	movf	___xxtofl@val+2,w
  5702  097F  00A8               	movwf	___xxtofl@arg+2
  5703  0980  0873               	movf	___xxtofl@val+1,w
  5704  0981  00A7               	movwf	___xxtofl@arg+1
  5705  0982  0872               	movf	___xxtofl@val,w
  5706  0983  00A6               	movwf	___xxtofl@arg
  5707  0984                     l859:	
  5708  0984  0875               	movf	___xxtofl@val+3,w
  5709  0985  0474               	iorwf	___xxtofl@val+2,w
  5710  0986  0473               	iorwf	___xxtofl@val+1,w
  5711  0987  0472               	iorwf	___xxtofl@val,w
  5712  0988  1D03               	skipz
  5713  0989  298B               	goto	u5471
  5714  098A  298C               	goto	u5470
  5715  098B                     u5471:	
  5716  098B  2995               	goto	l3992
  5717  098C                     u5470:	
  5718  098C                     l3988:	
  5719  098C  3000               	movlw	0
  5720  098D  00F5               	movwf	?___xxtofl+3
  5721  098E  3000               	movlw	0
  5722  098F  00F4               	movwf	?___xxtofl+2
  5723  0990  3000               	movlw	0
  5724  0991  00F3               	movwf	?___xxtofl+1
  5725  0992  3000               	movlw	0
  5726  0993  00F2               	movwf	?___xxtofl
  5727  0994  2A1B               	goto	l861
  5728  0995                     l3992:	
  5729  0995  3096               	movlw	150
  5730  0996  00A0               	movwf	??___xxtofl
  5731  0997  0820               	movf	??___xxtofl,w
  5732  0998  00A5               	movwf	___xxtofl@exp
  5733  0999  29A7               	goto	l3996
  5734  099A                     l3994:	
  5735  099A  3001               	movlw	1
  5736  099B  00A0               	movwf	??___xxtofl
  5737  099C  0820               	movf	??___xxtofl,w
  5738  099D  07A5               	addwf	___xxtofl@exp,f
  5739  099E  3001               	movlw	1
  5740  099F                     u5485:	
  5741  099F  1003               	clrc
  5742  09A0  0CA9               	rrf	___xxtofl@arg+3,f
  5743  09A1  0CA8               	rrf	___xxtofl@arg+2,f
  5744  09A2  0CA7               	rrf	___xxtofl@arg+1,f
  5745  09A3  0CA6               	rrf	___xxtofl@arg,f
  5746  09A4  3EFF               	addlw	-1
  5747  09A5  1D03               	skipz
  5748  09A6  299F               	goto	u5485
  5749  09A7                     l3996:	
  5750  09A7  30FE               	movlw	254
  5751  09A8  0529               	andwf	___xxtofl@arg+3,w
  5752  09A9  1D03               	btfss	3,2
  5753  09AA  29AC               	goto	u5491
  5754  09AB  29AD               	goto	u5490
  5755  09AC                     u5491:	
  5756  09AC  299A               	goto	l3994
  5757  09AD                     u5490:	
  5758  09AD  29C9               	goto	l865
  5759  09AE                     l3998:	
  5760  09AE  3001               	movlw	1
  5761  09AF  00A0               	movwf	??___xxtofl
  5762  09B0  0820               	movf	??___xxtofl,w
  5763  09B1  07A5               	addwf	___xxtofl@exp,f
  5764  09B2                     l4000:	
  5765  09B2  3001               	movlw	1
  5766  09B3  07A6               	addwf	___xxtofl@arg,f
  5767  09B4  3000               	movlw	0
  5768  09B5  1803               	skipnc
  5769  09B6  3001               	movlw	1
  5770  09B7  07A7               	addwf	___xxtofl@arg+1,f
  5771  09B8  3000               	movlw	0
  5772  09B9  1803               	skipnc
  5773  09BA  3001               	movlw	1
  5774  09BB  07A8               	addwf	___xxtofl@arg+2,f
  5775  09BC  3000               	movlw	0
  5776  09BD  1803               	skipnc
  5777  09BE  3001               	movlw	1
  5778  09BF  07A9               	addwf	___xxtofl@arg+3,f
  5779  09C0                     l4002:	
  5780  09C0  3001               	movlw	1
  5781  09C1                     u5505:	
  5782  09C1  1003               	clrc
  5783  09C2  0CA9               	rrf	___xxtofl@arg+3,f
  5784  09C3  0CA8               	rrf	___xxtofl@arg+2,f
  5785  09C4  0CA7               	rrf	___xxtofl@arg+1,f
  5786  09C5  0CA6               	rrf	___xxtofl@arg,f
  5787  09C6  3EFF               	addlw	-1
  5788  09C7  1D03               	skipz
  5789  09C8  29C1               	goto	u5505
  5790  09C9                     l865:	
  5791  09C9  30FF               	movlw	255
  5792  09CA  0529               	andwf	___xxtofl@arg+3,w
  5793  09CB  1D03               	btfss	3,2
  5794  09CC  29CE               	goto	u5511
  5795  09CD  29CF               	goto	u5510
  5796  09CE                     u5511:	
  5797  09CE  29AE               	goto	l3998
  5798  09CF                     u5510:	
  5799  09CF  29DB               	goto	l4006
  5800  09D0                     l4004:	
  5801  09D0  3001               	movlw	1
  5802  09D1  02A5               	subwf	___xxtofl@exp,f
  5803  09D2  3001               	movlw	1
  5804  09D3  00A0               	movwf	??___xxtofl
  5805  09D4                     u5525:	
  5806  09D4  1003               	clrc
  5807  09D5  0DA6               	rlf	___xxtofl@arg,f
  5808  09D6  0DA7               	rlf	___xxtofl@arg+1,f
  5809  09D7  0DA8               	rlf	___xxtofl@arg+2,f
  5810  09D8  0DA9               	rlf	___xxtofl@arg+3,f
  5811  09D9  0BA0               	decfsz	??___xxtofl,f
  5812  09DA  29D4               	goto	u5525
  5813  09DB                     l4006:	
  5814  09DB  1BA8               	btfsc	___xxtofl@arg+2,7
  5815  09DC  29DE               	goto	u5531
  5816  09DD  29DF               	goto	u5530
  5817  09DE                     u5531:	
  5818  09DE  29E5               	goto	l872
  5819  09DF                     u5530:	
  5820  09DF                     l4008:	
  5821  09DF  3002               	movlw	2
  5822  09E0  0225               	subwf	___xxtofl@exp,w
  5823  09E1  1803               	skipnc
  5824  09E2  29E4               	goto	u5541
  5825  09E3  29E5               	goto	u5540
  5826  09E4                     u5541:	
  5827  09E4  29D0               	goto	l4004
  5828  09E5                     u5540:	
  5829  09E5                     l872:	
  5830  09E5  1825               	btfsc	___xxtofl@exp,0
  5831  09E6  29E8               	goto	u5551
  5832  09E7  29E9               	goto	u5550
  5833  09E8                     u5551:	
  5834  09E8  29F1               	goto	l873
  5835  09E9                     u5550:	
  5836  09E9                     l4010:	
  5837  09E9  30FF               	movlw	255
  5838  09EA  05A6               	andwf	___xxtofl@arg,f
  5839  09EB  30FF               	movlw	255
  5840  09EC  05A7               	andwf	___xxtofl@arg+1,f
  5841  09ED  307F               	movlw	127
  5842  09EE  05A8               	andwf	___xxtofl@arg+2,f
  5843  09EF  30FF               	movlw	255
  5844  09F0  05A9               	andwf	___xxtofl@arg+3,f
  5845  09F1                     l873:	
  5846  09F1  1003               	clrc
  5847  09F2  0CA5               	rrf	___xxtofl@exp,f
  5848  09F3                     l4012:	
  5849  09F3  0825               	movf	___xxtofl@exp,w
  5850  09F4  00A0               	movwf	??___xxtofl
  5851  09F5  01A1               	clrf	??___xxtofl+1
  5852  09F6  01A2               	clrf	??___xxtofl+2
  5853  09F7  01A3               	clrf	??___xxtofl+3
  5854  09F8  3018               	movlw	24
  5855  09F9                     u5565:	
  5856  09F9  1003               	clrc
  5857  09FA  0DA0               	rlf	??___xxtofl,f
  5858  09FB  0DA1               	rlf	??___xxtofl+1,f
  5859  09FC  0DA2               	rlf	??___xxtofl+2,f
  5860  09FD  0DA3               	rlf	??___xxtofl+3,f
  5861  09FE                     u5560:	
  5862  09FE  3EFF               	addlw	-1
  5863  09FF  1D03               	skipz
  5864  0A00  29F9               	goto	u5565
  5865  0A01  0820               	movf	??___xxtofl,w
  5866  0A02  04A6               	iorwf	___xxtofl@arg,f
  5867  0A03  0821               	movf	??___xxtofl+1,w
  5868  0A04  04A7               	iorwf	___xxtofl@arg+1,f
  5869  0A05  0822               	movf	??___xxtofl+2,w
  5870  0A06  04A8               	iorwf	___xxtofl@arg+2,f
  5871  0A07  0823               	movf	??___xxtofl+3,w
  5872  0A08  04A9               	iorwf	___xxtofl@arg+3,f
  5873  0A09                     l4014:	
  5874  0A09  0824               	movf	___xxtofl@sign,w
  5875  0A0A  1903               	btfsc	3,2
  5876  0A0B  2A0D               	goto	u5571
  5877  0A0C  2A0E               	goto	u5570
  5878  0A0D                     u5571:	
  5879  0A0D  2A13               	goto	l4020
  5880  0A0E                     u5570:	
  5881  0A0E                     l4016:	
  5882  0A0E  1FF5               	btfss	___xxtofl@val+3,7
  5883  0A0F  2A11               	goto	u5581
  5884  0A10  2A12               	goto	u5580
  5885  0A11                     u5581:	
  5886  0A11  2A13               	goto	l4020
  5887  0A12                     u5580:	
  5888  0A12                     l4018:	
  5889  0A12  17A9               	bsf	___xxtofl@arg+3,7
  5890  0A13                     l4020:	
  5891  0A13  0829               	movf	___xxtofl@arg+3,w
  5892  0A14  00F5               	movwf	?___xxtofl+3
  5893  0A15  0828               	movf	___xxtofl@arg+2,w
  5894  0A16  00F4               	movwf	?___xxtofl+2
  5895  0A17  0827               	movf	___xxtofl@arg+1,w
  5896  0A18  00F3               	movwf	?___xxtofl+1
  5897  0A19  0826               	movf	___xxtofl@arg,w
  5898  0A1A  00F2               	movwf	?___xxtofl
  5899  0A1B                     l861:	
  5900  0A1B  0008               	return
  5901  0A1C                     __end_of___xxtofl:	
  5902                           
  5903                           	psect	text22
  5904  1514                     __ptext22:	
  5905 ;; *************** function ___lwmod *****************
  5906 ;; Defined at:
  5907 ;;		line 5 in file "C:\Program Files (x86)\Microchip\xc8\v2.10\pic\sources\c90\common\lwmod.c"
  5908 ;; Parameters:    Size  Location     Type
  5909 ;;  divisor         2    3[BANK0 ] unsigned int 
  5910 ;;  dividend        2    5[BANK0 ] unsigned int 
  5911 ;; Auto vars:     Size  Location     Type
  5912 ;;  counter         1    8[COMMON] unsigned char 
  5913 ;; Return value:  Size  Location     Type
  5914 ;;                  2    3[BANK0 ] unsigned int 
  5915 ;; Registers used:
  5916 ;;		wreg, status,2, status,0
  5917 ;; Tracked objects:
  5918 ;;		On entry : 0/0
  5919 ;;		On exit  : 0/0
  5920 ;;		Unchanged: 0/0
  5921 ;; Data sizes:     COMMON   BANK0   BANK1   BANK3   BANK2
  5922 ;;      Params:         0       4       0       0       0
  5923 ;;      Locals:         1       0       0       0       0
  5924 ;;      Temps:          1       0       0       0       0
  5925 ;;      Totals:         2       4       0       0       0
  5926 ;;Total ram usage:        6 bytes
  5927 ;; Hardware stack levels used:    1
  5928 ;; Hardware stack levels required when called:    1
  5929 ;; This function calls:
  5930 ;;		Nothing
  5931 ;; This function is called by:
  5932 ;;		_ADC_Read
  5933 ;;		_ONStatus
  5934 ;; This function uses a non-reentrant model
  5935 ;;
  5936                           
  5937                           
  5938                           ;psect for function ___lwmod
  5939  1514                     ___lwmod:	
  5940  1514                     l3624:	
  5941                           ;incstack = 0
  5942                           ; Regs used in ___lwmod: [wreg+status,2+status,0]
  5943                           
  5944  1514  1283               	bcf	3,5	;RP0=0, select bank0
  5945  1515  1303               	bcf	3,6	;RP1=0, select bank0
  5946  1516  0823               	movf	___lwmod@divisor,w
  5947  1517  0424               	iorwf	___lwmod@divisor+1,w
  5948  1518  1903               	btfsc	3,2
  5949  1519  2D1B               	goto	u4561
  5950  151A  2D1C               	goto	u4560
  5951  151B                     u4561:	
  5952  151B  2D4B               	goto	l3642
  5953  151C                     u4560:	
  5954  151C                     l3626:	
  5955  151C  01F8               	clrf	___lwmod@counter
  5956  151D  0AF8               	incf	___lwmod@counter,f
  5957  151E  2D2A               	goto	l3632
  5958  151F                     l3628:	
  5959  151F  3001               	movlw	1
  5960  1520                     u4575:	
  5961  1520  1003               	clrc
  5962  1521  0DA3               	rlf	___lwmod@divisor,f
  5963  1522  0DA4               	rlf	___lwmod@divisor+1,f
  5964  1523  3EFF               	addlw	-1
  5965  1524  1D03               	skipz
  5966  1525  2D20               	goto	u4575
  5967  1526                     l3630:	
  5968  1526  3001               	movlw	1
  5969  1527  00F7               	movwf	??___lwmod
  5970  1528  0877               	movf	??___lwmod,w
  5971  1529  07F8               	addwf	___lwmod@counter,f
  5972  152A                     l3632:	
  5973  152A  1FA4               	btfss	___lwmod@divisor+1,7
  5974  152B  2D2D               	goto	u4581
  5975  152C  2D2E               	goto	u4580
  5976  152D                     u4581:	
  5977  152D  2D1F               	goto	l3628
  5978  152E                     u4580:	
  5979  152E                     l3634:	
  5980  152E  0824               	movf	___lwmod@divisor+1,w
  5981  152F  0226               	subwf	___lwmod@dividend+1,w
  5982  1530  1D03               	skipz
  5983  1531  2D34               	goto	u4595
  5984  1532  0823               	movf	___lwmod@divisor,w
  5985  1533  0225               	subwf	___lwmod@dividend,w
  5986  1534                     u4595:	
  5987  1534  1C03               	skipc
  5988  1535  2D37               	goto	u4591
  5989  1536  2D38               	goto	u4590
  5990  1537                     u4591:	
  5991  1537  2D3E               	goto	l3638
  5992  1538                     u4590:	
  5993  1538                     l3636:	
  5994  1538  0823               	movf	___lwmod@divisor,w
  5995  1539  02A5               	subwf	___lwmod@dividend,f
  5996  153A  0824               	movf	___lwmod@divisor+1,w
  5997  153B  1C03               	skipc
  5998  153C  03A6               	decf	___lwmod@dividend+1,f
  5999  153D  02A6               	subwf	___lwmod@dividend+1,f
  6000  153E                     l3638:	
  6001  153E  3001               	movlw	1
  6002  153F                     u4605:	
  6003  153F  1003               	clrc
  6004  1540  0CA4               	rrf	___lwmod@divisor+1,f
  6005  1541  0CA3               	rrf	___lwmod@divisor,f
  6006  1542  3EFF               	addlw	-1
  6007  1543  1D03               	skipz
  6008  1544  2D3F               	goto	u4605
  6009  1545                     l3640:	
  6010  1545  3001               	movlw	1
  6011  1546  02F8               	subwf	___lwmod@counter,f
  6012  1547  1D03               	btfss	3,2
  6013  1548  2D4A               	goto	u4611
  6014  1549  2D4B               	goto	u4610
  6015  154A                     u4611:	
  6016  154A  2D2E               	goto	l3634
  6017  154B                     u4610:	
  6018  154B                     l3642:	
  6019  154B  0826               	movf	___lwmod@dividend+1,w
  6020  154C  00A4               	movwf	?___lwmod+1
  6021  154D  0825               	movf	___lwmod@dividend,w
  6022  154E  00A3               	movwf	?___lwmod
  6023  154F                     l714:	
  6024  154F  0008               	return
  6025  1550                     __end_of___lwmod:	
  6026                           
  6027                           	psect	text23
  6028  1698                     __ptext23:	
  6029 ;; *************** function ___lwdiv *****************
  6030 ;; Defined at:
  6031 ;;		line 5 in file "C:\Program Files (x86)\Microchip\xc8\v2.10\pic\sources\c90\common\lwdiv.c"
  6032 ;; Parameters:    Size  Location     Type
  6033 ;;  divisor         2    2[COMMON] unsigned int 
  6034 ;;  dividend        2    4[COMMON] unsigned int 
  6035 ;; Auto vars:     Size  Location     Type
  6036 ;;  quotient        2    1[BANK0 ] unsigned int 
  6037 ;;  counter         1    0[BANK0 ] unsigned char 
  6038 ;; Return value:  Size  Location     Type
  6039 ;;                  2    2[COMMON] unsigned int 
  6040 ;; Registers used:
  6041 ;;		wreg, status,2, status,0
  6042 ;; Tracked objects:
  6043 ;;		On entry : 0/0
  6044 ;;		On exit  : 0/0
  6045 ;;		Unchanged: 0/0
  6046 ;; Data sizes:     COMMON   BANK0   BANK1   BANK3   BANK2
  6047 ;;      Params:         4       0       0       0       0
  6048 ;;      Locals:         0       3       0       0       0
  6049 ;;      Temps:          1       0       0       0       0
  6050 ;;      Totals:         5       3       0       0       0
  6051 ;;Total ram usage:        8 bytes
  6052 ;; Hardware stack levels used:    1
  6053 ;; Hardware stack levels required when called:    1
  6054 ;; This function calls:
  6055 ;;		Nothing
  6056 ;; This function is called by:
  6057 ;;		_ADC_Read
  6058 ;;		_ONStatus
  6059 ;; This function uses a non-reentrant model
  6060 ;;
  6061                           
  6062                           
  6063                           ;psect for function ___lwdiv
  6064  1698                     ___lwdiv:	
  6065  1698                     l3598:	
  6066                           ;incstack = 0
  6067                           ; Regs used in ___lwdiv: [wreg+status,2+status,0]
  6068                           
  6069  1698  1283               	bcf	3,5	;RP0=0, select bank0
  6070  1699  1303               	bcf	3,6	;RP1=0, select bank0
  6071  169A  01A1               	clrf	___lwdiv@quotient
  6072  169B  01A2               	clrf	___lwdiv@quotient+1
  6073  169C                     l3600:	
  6074  169C  0872               	movf	___lwdiv@divisor,w
  6075  169D  0473               	iorwf	___lwdiv@divisor+1,w
  6076  169E  1903               	btfsc	3,2
  6077  169F  2EA1               	goto	u4491
  6078  16A0  2EA2               	goto	u4490
  6079  16A1                     u4491:	
  6080  16A1  2ED9               	goto	l3620
  6081  16A2                     u4490:	
  6082  16A2                     l3602:	
  6083  16A2  01A0               	clrf	___lwdiv@counter
  6084  16A3  0AA0               	incf	___lwdiv@counter,f
  6085  16A4  2EB0               	goto	l3608
  6086  16A5                     l3604:	
  6087  16A5  3001               	movlw	1
  6088  16A6                     u4505:	
  6089  16A6  1003               	clrc
  6090  16A7  0DF2               	rlf	___lwdiv@divisor,f
  6091  16A8  0DF3               	rlf	___lwdiv@divisor+1,f
  6092  16A9  3EFF               	addlw	-1
  6093  16AA  1D03               	skipz
  6094  16AB  2EA6               	goto	u4505
  6095  16AC                     l3606:	
  6096  16AC  3001               	movlw	1
  6097  16AD  00F6               	movwf	??___lwdiv
  6098  16AE  0876               	movf	??___lwdiv,w
  6099  16AF  07A0               	addwf	___lwdiv@counter,f
  6100  16B0                     l3608:	
  6101  16B0  1FF3               	btfss	___lwdiv@divisor+1,7
  6102  16B1  2EB3               	goto	u4511
  6103  16B2  2EB4               	goto	u4510
  6104  16B3                     u4511:	
  6105  16B3  2EA5               	goto	l3604
  6106  16B4                     u4510:	
  6107  16B4                     l3610:	
  6108  16B4  3001               	movlw	1
  6109  16B5                     u4525:	
  6110  16B5  1003               	clrc
  6111  16B6  0DA1               	rlf	___lwdiv@quotient,f
  6112  16B7  0DA2               	rlf	___lwdiv@quotient+1,f
  6113  16B8  3EFF               	addlw	-1
  6114  16B9  1D03               	skipz
  6115  16BA  2EB5               	goto	u4525
  6116  16BB  0873               	movf	___lwdiv@divisor+1,w
  6117  16BC  0275               	subwf	___lwdiv@dividend+1,w
  6118  16BD  1D03               	skipz
  6119  16BE  2EC1               	goto	u4535
  6120  16BF  0872               	movf	___lwdiv@divisor,w
  6121  16C0  0274               	subwf	___lwdiv@dividend,w
  6122  16C1                     u4535:	
  6123  16C1  1C03               	skipc
  6124  16C2  2EC4               	goto	u4531
  6125  16C3  2EC5               	goto	u4530
  6126  16C4                     u4531:	
  6127  16C4  2ECC               	goto	l3616
  6128  16C5                     u4530:	
  6129  16C5                     l3612:	
  6130  16C5  0872               	movf	___lwdiv@divisor,w
  6131  16C6  02F4               	subwf	___lwdiv@dividend,f
  6132  16C7  0873               	movf	___lwdiv@divisor+1,w
  6133  16C8  1C03               	skipc
  6134  16C9  03F5               	decf	___lwdiv@dividend+1,f
  6135  16CA  02F5               	subwf	___lwdiv@dividend+1,f
  6136  16CB                     l3614:	
  6137  16CB  1421               	bsf	___lwdiv@quotient,0
  6138  16CC                     l3616:	
  6139  16CC  3001               	movlw	1
  6140  16CD                     u4545:	
  6141  16CD  1003               	clrc
  6142  16CE  0CF3               	rrf	___lwdiv@divisor+1,f
  6143  16CF  0CF2               	rrf	___lwdiv@divisor,f
  6144  16D0  3EFF               	addlw	-1
  6145  16D1  1D03               	skipz
  6146  16D2  2ECD               	goto	u4545
  6147  16D3                     l3618:	
  6148  16D3  3001               	movlw	1
  6149  16D4  02A0               	subwf	___lwdiv@counter,f
  6150  16D5  1D03               	btfss	3,2
  6151  16D6  2ED8               	goto	u4551
  6152  16D7  2ED9               	goto	u4550
  6153  16D8                     u4551:	
  6154  16D8  2EB4               	goto	l3610
  6155  16D9                     u4550:	
  6156  16D9                     l3620:	
  6157  16D9  0822               	movf	___lwdiv@quotient+1,w
  6158  16DA  00F3               	movwf	?___lwdiv+1
  6159  16DB  0821               	movf	___lwdiv@quotient,w
  6160  16DC  00F2               	movwf	?___lwdiv
  6161  16DD                     l704:	
  6162  16DD  0008               	return
  6163  16DE                     __end_of___lwdiv:	
  6164                           
  6165                           	psect	text24
  6166  1784                     __ptext24:	
  6167 ;; *************** function ___fltol *****************
  6168 ;; Defined at:
  6169 ;;		line 43 in file "C:\Program Files (x86)\Microchip\xc8\v2.10\pic\sources\c90\common\fltol.c"
  6170 ;; Parameters:    Size  Location     Type
  6171 ;;  f1              4   56[BANK0 ] unsigned int 
  6172 ;; Auto vars:     Size  Location     Type
  6173 ;;  exp1            1    7[COMMON] unsigned char 
  6174 ;;  sign1           1    6[COMMON] unsigned char 
  6175 ;; Return value:  Size  Location     Type
  6176 ;;                  4   56[BANK0 ] long 
  6177 ;; Registers used:
  6178 ;;		wreg, status,2, status,0
  6179 ;; Tracked objects:
  6180 ;;		On entry : 0/0
  6181 ;;		On exit  : 0/0
  6182 ;;		Unchanged: 0/0
  6183 ;; Data sizes:     COMMON   BANK0   BANK1   BANK3   BANK2
  6184 ;;      Params:         0       4       0       0       0
  6185 ;;      Locals:         2       0       0       0       0
  6186 ;;      Temps:          0       5       0       0       0
  6187 ;;      Totals:         2       9       0       0       0
  6188 ;;Total ram usage:       11 bytes
  6189 ;; Hardware stack levels used:    1
  6190 ;; Hardware stack levels required when called:    1
  6191 ;; This function calls:
  6192 ;;		Nothing
  6193 ;; This function is called by:
  6194 ;;		_ADC_Read
  6195 ;; This function uses a non-reentrant model
  6196 ;;
  6197                           
  6198                           
  6199                           ;psect for function ___fltol
  6200  1784                     ___fltol:	
  6201  1784                     l3562:	
  6202                           ;incstack = 0
  6203                           ; Regs used in ___fltol: [wreg+status,2+status,0]
  6204                           
  6205  1784  1003               	clrc
  6206  1785  1283               	bcf	3,5	;RP0=0, select bank0
  6207  1786  1303               	bcf	3,6	;RP1=0, select bank0
  6208  1787  0D5A               	rlf	___fltol@f1+2,w
  6209  1788  0D5B               	rlf	___fltol@f1+3,w
  6210  1789  00DC               	movwf	??___fltol
  6211  178A  085C               	movf	??___fltol,w
  6212  178B  00F7               	movwf	___fltol@exp1
  6213  178C  0877               	movf	___fltol@exp1,w
  6214  178D  1D03               	btfss	3,2
  6215  178E  2F90               	goto	u4391
  6216  178F  2F91               	goto	u4390
  6217  1790                     u4391:	
  6218  1790  2F9A               	goto	l3568
  6219  1791                     u4390:	
  6220  1791                     l3564:	
  6221  1791  3000               	movlw	0
  6222  1792  00DB               	movwf	?___fltol+3
  6223  1793  3000               	movlw	0
  6224  1794  00DA               	movwf	?___fltol+2
  6225  1795  3000               	movlw	0
  6226  1796  00D9               	movwf	?___fltol+1
  6227  1797  3000               	movlw	0
  6228  1798  00D8               	movwf	?___fltol
  6229  1799  2FFF               	goto	l618
  6230  179A                     l3568:	
  6231  179A  0858               	movf	___fltol@f1,w
  6232  179B  00DC               	movwf	??___fltol
  6233  179C  0859               	movf	___fltol@f1+1,w
  6234  179D  00DD               	movwf	??___fltol+1
  6235  179E  085A               	movf	___fltol@f1+2,w
  6236  179F  00DE               	movwf	??___fltol+2
  6237  17A0  085B               	movf	___fltol@f1+3,w
  6238  17A1  00DF               	movwf	??___fltol+3
  6239  17A2  301F               	movlw	31
  6240  17A3                     u4405:	
  6241  17A3  1003               	clrc
  6242  17A4  0CDF               	rrf	??___fltol+3,f
  6243  17A5  0CDE               	rrf	??___fltol+2,f
  6244  17A6  0CDD               	rrf	??___fltol+1,f
  6245  17A7  0CDC               	rrf	??___fltol,f
  6246  17A8                     u4400:	
  6247  17A8  3EFF               	addlw	-1
  6248  17A9  1D03               	skipz
  6249  17AA  2FA3               	goto	u4405
  6250  17AB  085C               	movf	??___fltol,w
  6251  17AC  00E0               	movwf	??___fltol+4
  6252  17AD  0860               	movf	??___fltol+4,w
  6253  17AE  00F6               	movwf	___fltol@sign1
  6254  17AF                     l3570:	
  6255  17AF  17DA               	bsf	___fltol@f1+2,7
  6256  17B0                     l3572:	
  6257  17B0  30FF               	movlw	255
  6258  17B1  05D8               	andwf	___fltol@f1,f
  6259  17B2  30FF               	movlw	255
  6260  17B3  05D9               	andwf	___fltol@f1+1,f
  6261  17B4  30FF               	movlw	255
  6262  17B5  05DA               	andwf	___fltol@f1+2,f
  6263  17B6  3000               	movlw	0
  6264  17B7  05DB               	andwf	___fltol@f1+3,f
  6265  17B8                     l3574:	
  6266  17B8  3096               	movlw	150
  6267  17B9  02F7               	subwf	___fltol@exp1,f
  6268  17BA                     l3576:	
  6269  17BA  1FF7               	btfss	___fltol@exp1,7
  6270  17BB  2FBD               	goto	u4411
  6271  17BC  2FBE               	goto	u4410
  6272  17BD                     u4411:	
  6273  17BD  2FD8               	goto	l3586
  6274  17BE                     u4410:	
  6275  17BE                     l3578:	
  6276  17BE  0877               	movf	___fltol@exp1,w
  6277  17BF  3A80               	xorlw	128
  6278  17C0  3E97               	addlw	151
  6279  17C1  1803               	skipnc
  6280  17C2  2FC4               	goto	u4421
  6281  17C3  2FC5               	goto	u4420
  6282  17C4                     u4421:	
  6283  17C4  2FC6               	goto	l3584
  6284  17C5                     u4420:	
  6285  17C5  2F91               	goto	l3564
  6286  17C6                     l3584:	
  6287  17C6  3001               	movlw	1
  6288  17C7                     u4435:	
  6289  17C7  1003               	clrc
  6290  17C8  0CDB               	rrf	___fltol@f1+3,f
  6291  17C9  0CDA               	rrf	___fltol@f1+2,f
  6292  17CA  0CD9               	rrf	___fltol@f1+1,f
  6293  17CB  0CD8               	rrf	___fltol@f1,f
  6294  17CC  3EFF               	addlw	-1
  6295  17CD  1D03               	skipz
  6296  17CE  2FC7               	goto	u4435
  6297  17CF  3001               	movlw	1
  6298  17D0  00DC               	movwf	??___fltol
  6299  17D1  085C               	movf	??___fltol,w
  6300  17D2  07F7               	addwf	___fltol@exp1,f
  6301  17D3  1D03               	btfss	3,2
  6302  17D4  2FD6               	goto	u4441
  6303  17D5  2FD7               	goto	u4440
  6304  17D6                     u4441:	
  6305  17D6  2FC6               	goto	l3584
  6306  17D7                     u4440:	
  6307  17D7  2FEF               	goto	l3594
  6308  17D8                     l3586:	
  6309  17D8  3020               	movlw	32
  6310  17D9  0277               	subwf	___fltol@exp1,w
  6311  17DA  1C03               	skipc
  6312  17DB  2FDD               	goto	u4451
  6313  17DC  2FDE               	goto	u4450
  6314  17DD                     u4451:	
  6315  17DD  2FEA               	goto	l625
  6316  17DE                     u4450:	
  6317  17DE  2F91               	goto	l3564
  6318  17DF                     l3592:	
  6319  17DF  3001               	movlw	1
  6320  17E0  00DC               	movwf	??___fltol
  6321  17E1                     u4465:	
  6322  17E1  1003               	clrc
  6323  17E2  0DD8               	rlf	___fltol@f1,f
  6324  17E3  0DD9               	rlf	___fltol@f1+1,f
  6325  17E4  0DDA               	rlf	___fltol@f1+2,f
  6326  17E5  0DDB               	rlf	___fltol@f1+3,f
  6327  17E6  0BDC               	decfsz	??___fltol,f
  6328  17E7  2FE1               	goto	u4465
  6329  17E8  3001               	movlw	1
  6330  17E9  02F7               	subwf	___fltol@exp1,f
  6331  17EA                     l625:	
  6332  17EA  0877               	movf	___fltol@exp1,w
  6333  17EB  1D03               	btfss	3,2
  6334  17EC  2FEE               	goto	u4471
  6335  17ED  2FEF               	goto	u4470
  6336  17EE                     u4471:	
  6337  17EE  2FDF               	goto	l3592
  6338  17EF                     u4470:	
  6339  17EF                     l3594:	
  6340  17EF  0876               	movf	___fltol@sign1,w
  6341  17F0  1903               	btfsc	3,2
  6342  17F1  2FF3               	goto	u4481
  6343  17F2  2FF4               	goto	u4480
  6344  17F3                     u4481:	
  6345  17F3  2FFF               	goto	l628
  6346  17F4                     u4480:	
  6347  17F4                     l3596:	
  6348  17F4  09D8               	comf	___fltol@f1,f
  6349  17F5  09D9               	comf	___fltol@f1+1,f
  6350  17F6  09DA               	comf	___fltol@f1+2,f
  6351  17F7  09DB               	comf	___fltol@f1+3,f
  6352  17F8  0AD8               	incf	___fltol@f1,f
  6353  17F9  1903               	skipnz
  6354  17FA  0AD9               	incf	___fltol@f1+1,f
  6355  17FB  1903               	skipnz
  6356  17FC  0ADA               	incf	___fltol@f1+2,f
  6357  17FD  1903               	skipnz
  6358  17FE  0ADB               	incf	___fltol@f1+3,f
  6359  17FF                     l628:	
  6360  17FF                     l618:	
  6361  17FF  0008               	return
  6362  1800                     __end_of___fltol:	
  6363                           
  6364                           	psect	text25
  6365  004D                     __ptext25:	
  6366 ;; *************** function ___flmul *****************
  6367 ;; Defined at:
  6368 ;;		line 8 in file "C:\Program Files (x86)\Microchip\xc8\v2.10\pic\sources\c90\common\sprcmul.c"
  6369 ;; Parameters:    Size  Location     Type
  6370 ;;  b               4   10[BANK0 ] long 
  6371 ;;  a               4   14[BANK0 ] long 
  6372 ;; Auto vars:     Size  Location     Type
  6373 ;;  prod            4   30[BANK0 ] struct .
  6374 ;;  grs             4   25[BANK0 ] unsigned long 
  6375 ;;  temp            2   34[BANK0 ] struct .
  6376 ;;  bexp            1   29[BANK0 ] unsigned char 
  6377 ;;  aexp            1   24[BANK0 ] unsigned char 
  6378 ;;  sign            1   23[BANK0 ] unsigned char 
  6379 ;; Return value:  Size  Location     Type
  6380 ;;                  4   10[BANK0 ] unsigned char 
  6381 ;; Registers used:
  6382 ;;		wreg, status,2, status,0, btemp+1, pclath, cstack
  6383 ;; Tracked objects:
  6384 ;;		On entry : 0/0
  6385 ;;		On exit  : 0/0
  6386 ;;		Unchanged: 0/0
  6387 ;; Data sizes:     COMMON   BANK0   BANK1   BANK3   BANK2
  6388 ;;      Params:         0       8       0       0       0
  6389 ;;      Locals:         0      13       0       0       0
  6390 ;;      Temps:          0       5       0       0       0
  6391 ;;      Totals:         0      26       0       0       0
  6392 ;;Total ram usage:       26 bytes
  6393 ;; Hardware stack levels used:    1
  6394 ;; Hardware stack levels required when called:    2
  6395 ;; This function calls:
  6396 ;;		__Umul8_16
  6397 ;; This function is called by:
  6398 ;;		_ADC_Read
  6399 ;; This function uses a non-reentrant model
  6400 ;;
  6401                           
  6402                           
  6403                           ;psect for function ___flmul
  6404  004D                     ___flmul:	
  6405  004D                     l3840:	
  6406                           ;incstack = 0
  6407                           ; Regs used in ___flmul: [wreg+status,2+status,0+btemp+1+pclath+cstack]
  6408                           
  6409  004D  1283               	bcf	3,5	;RP0=0, select bank0
  6410  004E  1303               	bcf	3,6	;RP1=0, select bank0
  6411  004F  082D               	movf	___flmul@b+3,w
  6412  0050  3980               	andlw	128
  6413  0051  00B2               	movwf	??___flmul
  6414  0052  0832               	movf	??___flmul,w
  6415  0053  00B7               	movwf	___flmul@sign
  6416  0054                     l3842:	
  6417  0054  082D               	movf	___flmul@b+3,w
  6418  0055  00B2               	movwf	??___flmul
  6419  0056  0732               	addwf	??___flmul,w
  6420  0057  00B3               	movwf	??___flmul+1
  6421  0058  0833               	movf	??___flmul+1,w
  6422  0059  00BD               	movwf	___flmul@bexp
  6423  005A                     l3844:	
  6424  005A  1FAC               	btfss	___flmul@b+2,7
  6425  005B  285D               	goto	u5081
  6426  005C  285E               	goto	u5080
  6427  005D                     u5081:	
  6428  005D  285F               	goto	l3848
  6429  005E                     u5080:	
  6430  005E                     l3846:	
  6431  005E  143D               	bsf	___flmul@bexp,0
  6432  005F                     l3848:	
  6433  005F  083D               	movf	___flmul@bexp,w
  6434  0060  1903               	btfsc	3,2
  6435  0061  2863               	goto	u5091
  6436  0062  2864               	goto	u5090
  6437  0063                     u5091:	
  6438  0063  2873               	goto	l3856
  6439  0064                     u5090:	
  6440  0064                     l3850:	
  6441  0064  0A3D               	incf	___flmul@bexp,w
  6442  0065  1D03               	btfss	3,2
  6443  0066  2868               	goto	u5101
  6444  0067  2869               	goto	u5100
  6445  0068                     u5101:	
  6446  0068  2871               	goto	l3854
  6447  0069                     u5100:	
  6448  0069                     l3852:	
  6449  0069  3000               	movlw	0
  6450  006A  00AD               	movwf	___flmul@b+3
  6451  006B  3000               	movlw	0
  6452  006C  00AC               	movwf	___flmul@b+2
  6453  006D  3000               	movlw	0
  6454  006E  00AB               	movwf	___flmul@b+1
  6455  006F  3000               	movlw	0
  6456  0070  00AA               	movwf	___flmul@b
  6457  0071                     l3854:	
  6458  0071  17AC               	bsf	___flmul@b+2,7
  6459  0072  287B               	goto	l3858
  6460  0073                     l3856:	
  6461  0073  3000               	movlw	0
  6462  0074  00AD               	movwf	___flmul@b+3
  6463  0075  3000               	movlw	0
  6464  0076  00AC               	movwf	___flmul@b+2
  6465  0077  3000               	movlw	0
  6466  0078  00AB               	movwf	___flmul@b+1
  6467  0079  3000               	movlw	0
  6468  007A  00AA               	movwf	___flmul@b
  6469  007B                     l3858:	
  6470  007B  0831               	movf	___flmul@a+3,w
  6471  007C  3980               	andlw	128
  6472  007D  00B2               	movwf	??___flmul
  6473  007E  0832               	movf	??___flmul,w
  6474  007F  06B7               	xorwf	___flmul@sign,f
  6475  0080                     l3860:	
  6476  0080  0831               	movf	___flmul@a+3,w
  6477  0081  00B2               	movwf	??___flmul
  6478  0082  0732               	addwf	??___flmul,w
  6479  0083  00B3               	movwf	??___flmul+1
  6480  0084  0833               	movf	??___flmul+1,w
  6481  0085  00B8               	movwf	___flmul@aexp
  6482  0086                     l3862:	
  6483  0086  1FB0               	btfss	___flmul@a+2,7
  6484  0087  2889               	goto	u5111
  6485  0088  288A               	goto	u5110
  6486  0089                     u5111:	
  6487  0089  288B               	goto	l3866
  6488  008A                     u5110:	
  6489  008A                     l3864:	
  6490  008A  1438               	bsf	___flmul@aexp,0
  6491  008B                     l3866:	
  6492  008B  0838               	movf	___flmul@aexp,w
  6493  008C  1903               	btfsc	3,2
  6494  008D  288F               	goto	u5121
  6495  008E  2890               	goto	u5120
  6496  008F                     u5121:	
  6497  008F  289F               	goto	l3874
  6498  0090                     u5120:	
  6499  0090                     l3868:	
  6500  0090  0A38               	incf	___flmul@aexp,w
  6501  0091  1D03               	btfss	3,2
  6502  0092  2894               	goto	u5131
  6503  0093  2895               	goto	u5130
  6504  0094                     u5131:	
  6505  0094  289D               	goto	l3872
  6506  0095                     u5130:	
  6507  0095                     l3870:	
  6508  0095  3000               	movlw	0
  6509  0096  00B1               	movwf	___flmul@a+3
  6510  0097  3000               	movlw	0
  6511  0098  00B0               	movwf	___flmul@a+2
  6512  0099  3000               	movlw	0
  6513  009A  00AF               	movwf	___flmul@a+1
  6514  009B  3000               	movlw	0
  6515  009C  00AE               	movwf	___flmul@a
  6516  009D                     l3872:	
  6517  009D  17B0               	bsf	___flmul@a+2,7
  6518  009E  28A7               	goto	l3876
  6519  009F                     l3874:	
  6520  009F  3000               	movlw	0
  6521  00A0  00B1               	movwf	___flmul@a+3
  6522  00A1  3000               	movlw	0
  6523  00A2  00B0               	movwf	___flmul@a+2
  6524  00A3  3000               	movlw	0
  6525  00A4  00AF               	movwf	___flmul@a+1
  6526  00A5  3000               	movlw	0
  6527  00A6  00AE               	movwf	___flmul@a
  6528  00A7                     l3876:	
  6529  00A7  0838               	movf	___flmul@aexp,w
  6530  00A8  1903               	btfsc	3,2
  6531  00A9  28AB               	goto	u5141
  6532  00AA  28AC               	goto	u5140
  6533  00AB                     u5141:	
  6534  00AB  28B1               	goto	l3880
  6535  00AC                     u5140:	
  6536  00AC                     l3878:	
  6537  00AC  083D               	movf	___flmul@bexp,w
  6538  00AD  1D03               	btfss	3,2
  6539  00AE  28B0               	goto	u5151
  6540  00AF  28B1               	goto	u5150
  6541  00B0                     u5151:	
  6542  00B0  28BA               	goto	l3884
  6543  00B1                     u5150:	
  6544  00B1                     l3880:	
  6545  00B1  3000               	movlw	0
  6546  00B2  00AD               	movwf	?___flmul+3
  6547  00B3  3000               	movlw	0
  6548  00B4  00AC               	movwf	?___flmul+2
  6549  00B5  3000               	movlw	0
  6550  00B6  00AB               	movwf	?___flmul+1
  6551  00B7  3000               	movlw	0
  6552  00B8  00AA               	movwf	?___flmul
  6553  00B9  2BAD               	goto	l821
  6554  00BA                     l3884:	
  6555  00BA  082A               	movf	___flmul@b,w
  6556  00BB  00B2               	movwf	??___flmul
  6557  00BC  0832               	movf	??___flmul,w
  6558  00BD  00F2               	movwf	__Umul8_16@multiplicand
  6559  00BE  0830               	movf	___flmul@a+2,w
  6560  00BF  160A  118A  247B  120A  118A  	fcall	__Umul8_16
  6561  00C4  0873               	movf	?__Umul8_16+1,w
  6562  00C5  1283               	bcf	3,5	;RP0=0, select bank0
  6563  00C6  1303               	bcf	3,6	;RP1=0, select bank0
  6564  00C7  00C3               	movwf	___flmul@temp+1
  6565  00C8  0872               	movf	?__Umul8_16,w
  6566  00C9  00C2               	movwf	___flmul@temp
  6567  00CA                     l3886:	
  6568  00CA  0842               	movf	___flmul@temp,w
  6569  00CB  00B2               	movwf	??___flmul
  6570  00CC  01B3               	clrf	??___flmul+1
  6571  00CD  01B4               	clrf	??___flmul+2
  6572  00CE  01B5               	clrf	??___flmul+3
  6573  00CF  0835               	movf	??___flmul+3,w
  6574  00D0  00BC               	movwf	___flmul@grs+3
  6575  00D1  0834               	movf	??___flmul+2,w
  6576  00D2  00BB               	movwf	___flmul@grs+2
  6577  00D3  0833               	movf	??___flmul+1,w
  6578  00D4  00BA               	movwf	___flmul@grs+1
  6579  00D5  0832               	movf	??___flmul,w
  6580  00D6  00B9               	movwf	___flmul@grs
  6581  00D7                     l3888:	
  6582  00D7  0843               	movf	___flmul@temp+1,w
  6583  00D8  00B2               	movwf	??___flmul
  6584  00D9  01B3               	clrf	??___flmul+1
  6585  00DA  01B4               	clrf	??___flmul+2
  6586  00DB  01B5               	clrf	??___flmul+3
  6587  00DC  0835               	movf	??___flmul+3,w
  6588  00DD  00C1               	movwf	___flmul@prod+3
  6589  00DE  0834               	movf	??___flmul+2,w
  6590  00DF  00C0               	movwf	___flmul@prod+2
  6591  00E0  0833               	movf	??___flmul+1,w
  6592  00E1  00BF               	movwf	___flmul@prod+1
  6593  00E2  0832               	movf	??___flmul,w
  6594  00E3  00BE               	movwf	___flmul@prod
  6595  00E4  082B               	movf	___flmul@b+1,w
  6596  00E5  00B2               	movwf	??___flmul
  6597  00E6  0832               	movf	??___flmul,w
  6598  00E7  00F2               	movwf	__Umul8_16@multiplicand
  6599  00E8  082F               	movf	___flmul@a+1,w
  6600  00E9  160A  118A  247B  120A  118A  	fcall	__Umul8_16
  6601  00EE  0873               	movf	?__Umul8_16+1,w
  6602  00EF  1283               	bcf	3,5	;RP0=0, select bank0
  6603  00F0  1303               	bcf	3,6	;RP1=0, select bank0
  6604  00F1  00C3               	movwf	___flmul@temp+1
  6605  00F2  0872               	movf	?__Umul8_16,w
  6606  00F3  00C2               	movwf	___flmul@temp
  6607  00F4                     l3890:	
  6608  00F4  0842               	movf	___flmul@temp,w
  6609  00F5  00B2               	movwf	??___flmul
  6610  00F6  01B3               	clrf	??___flmul+1
  6611  00F7  01B4               	clrf	??___flmul+2
  6612  00F8  01B5               	clrf	??___flmul+3
  6613  00F9  0832               	movf	??___flmul,w
  6614  00FA  07B9               	addwf	___flmul@grs,f
  6615  00FB  0833               	movf	??___flmul+1,w
  6616  00FC  1103               	clrz
  6617  00FD  1803               	skipnc
  6618  00FE  3E01               	addlw	1
  6619  00FF  1903               	skipnz
  6620  0100  2902               	goto	u5161
  6621  0101  07BA               	addwf	___flmul@grs+1,f
  6622  0102                     u5161:	
  6623  0102  0834               	movf	??___flmul+2,w
  6624  0103  1103               	clrz
  6625  0104  1803               	skipnc
  6626  0105  3E01               	addlw	1
  6627  0106  1903               	skipnz
  6628  0107  2909               	goto	u5162
  6629  0108  07BB               	addwf	___flmul@grs+2,f
  6630  0109                     u5162:	
  6631  0109  0835               	movf	??___flmul+3,w
  6632  010A  1103               	clrz
  6633  010B  1803               	skipnc
  6634  010C  3E01               	addlw	1
  6635  010D  1903               	skipnz
  6636  010E  2910               	goto	u5163
  6637  010F  07BC               	addwf	___flmul@grs+3,f
  6638  0110                     u5163:	
  6639  0110                     l3892:	
  6640  0110  0843               	movf	___flmul@temp+1,w
  6641  0111  00B2               	movwf	??___flmul
  6642  0112  01B3               	clrf	??___flmul+1
  6643  0113  01B4               	clrf	??___flmul+2
  6644  0114  01B5               	clrf	??___flmul+3
  6645  0115  0832               	movf	??___flmul,w
  6646  0116  07BE               	addwf	___flmul@prod,f
  6647  0117  0833               	movf	??___flmul+1,w
  6648  0118  1103               	clrz
  6649  0119  1803               	skipnc
  6650  011A  3E01               	addlw	1
  6651  011B  1903               	skipnz
  6652  011C  291E               	goto	u5171
  6653  011D  07BF               	addwf	___flmul@prod+1,f
  6654  011E                     u5171:	
  6655  011E  0834               	movf	??___flmul+2,w
  6656  011F  1103               	clrz
  6657  0120  1803               	skipnc
  6658  0121  3E01               	addlw	1
  6659  0122  1903               	skipnz
  6660  0123  2925               	goto	u5172
  6661  0124  07C0               	addwf	___flmul@prod+2,f
  6662  0125                     u5172:	
  6663  0125  0835               	movf	??___flmul+3,w
  6664  0126  1103               	clrz
  6665  0127  1803               	skipnc
  6666  0128  3E01               	addlw	1
  6667  0129  1903               	skipnz
  6668  012A  292C               	goto	u5173
  6669  012B  07C1               	addwf	___flmul@prod+3,f
  6670  012C                     u5173:	
  6671  012C  082C               	movf	___flmul@b+2,w
  6672  012D  00B2               	movwf	??___flmul
  6673  012E  0832               	movf	??___flmul,w
  6674  012F  00F2               	movwf	__Umul8_16@multiplicand
  6675  0130  082E               	movf	___flmul@a,w
  6676  0131  160A  118A  247B  120A  118A  	fcall	__Umul8_16
  6677  0136  0873               	movf	?__Umul8_16+1,w
  6678  0137  1283               	bcf	3,5	;RP0=0, select bank0
  6679  0138  1303               	bcf	3,6	;RP1=0, select bank0
  6680  0139  00C3               	movwf	___flmul@temp+1
  6681  013A  0872               	movf	?__Umul8_16,w
  6682  013B  00C2               	movwf	___flmul@temp
  6683  013C                     l3894:	
  6684  013C  0842               	movf	___flmul@temp,w
  6685  013D  00B2               	movwf	??___flmul
  6686  013E  01B3               	clrf	??___flmul+1
  6687  013F  01B4               	clrf	??___flmul+2
  6688  0140  01B5               	clrf	??___flmul+3
  6689  0141  0832               	movf	??___flmul,w
  6690  0142  07B9               	addwf	___flmul@grs,f
  6691  0143  0833               	movf	??___flmul+1,w
  6692  0144  1103               	clrz
  6693  0145  1803               	skipnc
  6694  0146  3E01               	addlw	1
  6695  0147  1903               	skipnz
  6696  0148  294A               	goto	u5181
  6697  0149  07BA               	addwf	___flmul@grs+1,f
  6698  014A                     u5181:	
  6699  014A  0834               	movf	??___flmul+2,w
  6700  014B  1103               	clrz
  6701  014C  1803               	skipnc
  6702  014D  3E01               	addlw	1
  6703  014E  1903               	skipnz
  6704  014F  2951               	goto	u5182
  6705  0150  07BB               	addwf	___flmul@grs+2,f
  6706  0151                     u5182:	
  6707  0151  0835               	movf	??___flmul+3,w
  6708  0152  1103               	clrz
  6709  0153  1803               	skipnc
  6710  0154  3E01               	addlw	1
  6711  0155  1903               	skipnz
  6712  0156  2958               	goto	u5183
  6713  0157  07BC               	addwf	___flmul@grs+3,f
  6714  0158                     u5183:	
  6715  0158                     l3896:	
  6716  0158  0843               	movf	___flmul@temp+1,w
  6717  0159  00B2               	movwf	??___flmul
  6718  015A  01B3               	clrf	??___flmul+1
  6719  015B  01B4               	clrf	??___flmul+2
  6720  015C  01B5               	clrf	??___flmul+3
  6721  015D  0832               	movf	??___flmul,w
  6722  015E  07BE               	addwf	___flmul@prod,f
  6723  015F  0833               	movf	??___flmul+1,w
  6724  0160  1103               	clrz
  6725  0161  1803               	skipnc
  6726  0162  3E01               	addlw	1
  6727  0163  1903               	skipnz
  6728  0164  2966               	goto	u5191
  6729  0165  07BF               	addwf	___flmul@prod+1,f
  6730  0166                     u5191:	
  6731  0166  0834               	movf	??___flmul+2,w
  6732  0167  1103               	clrz
  6733  0168  1803               	skipnc
  6734  0169  3E01               	addlw	1
  6735  016A  1903               	skipnz
  6736  016B  296D               	goto	u5192
  6737  016C  07C0               	addwf	___flmul@prod+2,f
  6738  016D                     u5192:	
  6739  016D  0835               	movf	??___flmul+3,w
  6740  016E  1103               	clrz
  6741  016F  1803               	skipnc
  6742  0170  3E01               	addlw	1
  6743  0171  1903               	skipnz
  6744  0172  2974               	goto	u5193
  6745  0173  07C1               	addwf	___flmul@prod+3,f
  6746  0174                     u5193:	
  6747  0174                     l3898:	
  6748  0174  3008               	movlw	8
  6749  0175  00B2               	movwf	??___flmul
  6750  0176                     u5205:	
  6751  0176  1003               	clrc
  6752  0177  0DB9               	rlf	___flmul@grs,f
  6753  0178  0DBA               	rlf	___flmul@grs+1,f
  6754  0179  0DBB               	rlf	___flmul@grs+2,f
  6755  017A  0DBC               	rlf	___flmul@grs+3,f
  6756  017B  0BB2               	decfsz	??___flmul,f
  6757  017C  2976               	goto	u5205
  6758  017D                     l3900:	
  6759  017D  082B               	movf	___flmul@b+1,w
  6760  017E  00B2               	movwf	??___flmul
  6761  017F  0832               	movf	??___flmul,w
  6762  0180  00F2               	movwf	__Umul8_16@multiplicand
  6763  0181  082E               	movf	___flmul@a,w
  6764  0182  160A  118A  247B  120A  118A  	fcall	__Umul8_16
  6765  0187  0873               	movf	?__Umul8_16+1,w
  6766  0188  1283               	bcf	3,5	;RP0=0, select bank0
  6767  0189  1303               	bcf	3,6	;RP1=0, select bank0
  6768  018A  00C3               	movwf	___flmul@temp+1
  6769  018B  0872               	movf	?__Umul8_16,w
  6770  018C  00C2               	movwf	___flmul@temp
  6771  018D                     l3902:	
  6772  018D  0842               	movf	___flmul@temp,w
  6773  018E  00B2               	movwf	??___flmul
  6774  018F  0843               	movf	___flmul@temp+1,w
  6775  0190  00B3               	movwf	??___flmul+1
  6776  0191  01B4               	clrf	??___flmul+2
  6777  0192  01B5               	clrf	??___flmul+3
  6778  0193  0832               	movf	??___flmul,w
  6779  0194  07B9               	addwf	___flmul@grs,f
  6780  0195  0833               	movf	??___flmul+1,w
  6781  0196  1103               	clrz
  6782  0197  1803               	skipnc
  6783  0198  3E01               	addlw	1
  6784  0199  1903               	skipnz
  6785  019A  299C               	goto	u5211
  6786  019B  07BA               	addwf	___flmul@grs+1,f
  6787  019C                     u5211:	
  6788  019C  0834               	movf	??___flmul+2,w
  6789  019D  1103               	clrz
  6790  019E  1803               	skipnc
  6791  019F  3E01               	addlw	1
  6792  01A0  1903               	skipnz
  6793  01A1  29A3               	goto	u5212
  6794  01A2  07BB               	addwf	___flmul@grs+2,f
  6795  01A3                     u5212:	
  6796  01A3  0835               	movf	??___flmul+3,w
  6797  01A4  1103               	clrz
  6798  01A5  1803               	skipnc
  6799  01A6  3E01               	addlw	1
  6800  01A7  1903               	skipnz
  6801  01A8  29AA               	goto	u5213
  6802  01A9  07BC               	addwf	___flmul@grs+3,f
  6803  01AA                     u5213:	
  6804  01AA                     l3904:	
  6805  01AA  082A               	movf	___flmul@b,w
  6806  01AB  00B2               	movwf	??___flmul
  6807  01AC  0832               	movf	??___flmul,w
  6808  01AD  00F2               	movwf	__Umul8_16@multiplicand
  6809  01AE  082F               	movf	___flmul@a+1,w
  6810  01AF  160A  118A  247B  120A  118A  	fcall	__Umul8_16
  6811  01B4  0873               	movf	?__Umul8_16+1,w
  6812  01B5  1283               	bcf	3,5	;RP0=0, select bank0
  6813  01B6  1303               	bcf	3,6	;RP1=0, select bank0
  6814  01B7  00C3               	movwf	___flmul@temp+1
  6815  01B8  0872               	movf	?__Umul8_16,w
  6816  01B9  00C2               	movwf	___flmul@temp
  6817  01BA                     l3906:	
  6818  01BA  0842               	movf	___flmul@temp,w
  6819  01BB  00B2               	movwf	??___flmul
  6820  01BC  0843               	movf	___flmul@temp+1,w
  6821  01BD  00B3               	movwf	??___flmul+1
  6822  01BE  01B4               	clrf	??___flmul+2
  6823  01BF  01B5               	clrf	??___flmul+3
  6824  01C0  0832               	movf	??___flmul,w
  6825  01C1  07B9               	addwf	___flmul@grs,f
  6826  01C2  0833               	movf	??___flmul+1,w
  6827  01C3  1103               	clrz
  6828  01C4  1803               	skipnc
  6829  01C5  3E01               	addlw	1
  6830  01C6  1903               	skipnz
  6831  01C7  29C9               	goto	u5221
  6832  01C8  07BA               	addwf	___flmul@grs+1,f
  6833  01C9                     u5221:	
  6834  01C9  0834               	movf	??___flmul+2,w
  6835  01CA  1103               	clrz
  6836  01CB  1803               	skipnc
  6837  01CC  3E01               	addlw	1
  6838  01CD  1903               	skipnz
  6839  01CE  29D0               	goto	u5222
  6840  01CF  07BB               	addwf	___flmul@grs+2,f
  6841  01D0                     u5222:	
  6842  01D0  0835               	movf	??___flmul+3,w
  6843  01D1  1103               	clrz
  6844  01D2  1803               	skipnc
  6845  01D3  3E01               	addlw	1
  6846  01D4  1903               	skipnz
  6847  01D5  29D7               	goto	u5223
  6848  01D6  07BC               	addwf	___flmul@grs+3,f
  6849  01D7                     u5223:	
  6850  01D7                     l3908:	
  6851  01D7  3008               	movlw	8
  6852  01D8  00B2               	movwf	??___flmul
  6853  01D9                     u5235:	
  6854  01D9  1003               	clrc
  6855  01DA  0DB9               	rlf	___flmul@grs,f
  6856  01DB  0DBA               	rlf	___flmul@grs+1,f
  6857  01DC  0DBB               	rlf	___flmul@grs+2,f
  6858  01DD  0DBC               	rlf	___flmul@grs+3,f
  6859  01DE  0BB2               	decfsz	??___flmul,f
  6860  01DF  29D9               	goto	u5235
  6861  01E0  082A               	movf	___flmul@b,w
  6862  01E1  00B2               	movwf	??___flmul
  6863  01E2  0832               	movf	??___flmul,w
  6864  01E3  00F2               	movwf	__Umul8_16@multiplicand
  6865  01E4  082E               	movf	___flmul@a,w
  6866  01E5  160A  118A  247B  120A  118A  	fcall	__Umul8_16
  6867  01EA  0873               	movf	?__Umul8_16+1,w
  6868  01EB  1283               	bcf	3,5	;RP0=0, select bank0
  6869  01EC  1303               	bcf	3,6	;RP1=0, select bank0
  6870  01ED  00C3               	movwf	___flmul@temp+1
  6871  01EE  0872               	movf	?__Umul8_16,w
  6872  01EF  00C2               	movwf	___flmul@temp
  6873  01F0                     l3910:	
  6874  01F0  0842               	movf	___flmul@temp,w
  6875  01F1  00B2               	movwf	??___flmul
  6876  01F2  0843               	movf	___flmul@temp+1,w
  6877  01F3  00B3               	movwf	??___flmul+1
  6878  01F4  01B4               	clrf	??___flmul+2
  6879  01F5  01B5               	clrf	??___flmul+3
  6880  01F6  0832               	movf	??___flmul,w
  6881  01F7  07B9               	addwf	___flmul@grs,f
  6882  01F8  0833               	movf	??___flmul+1,w
  6883  01F9  1103               	clrz
  6884  01FA  1803               	skipnc
  6885  01FB  3E01               	addlw	1
  6886  01FC  1903               	skipnz
  6887  01FD  29FF               	goto	u5241
  6888  01FE  07BA               	addwf	___flmul@grs+1,f
  6889  01FF                     u5241:	
  6890  01FF  0834               	movf	??___flmul+2,w
  6891  0200  1103               	clrz
  6892  0201  1803               	skipnc
  6893  0202  3E01               	addlw	1
  6894  0203  1903               	skipnz
  6895  0204  2A06               	goto	u5242
  6896  0205  07BB               	addwf	___flmul@grs+2,f
  6897  0206                     u5242:	
  6898  0206  0835               	movf	??___flmul+3,w
  6899  0207  1103               	clrz
  6900  0208  1803               	skipnc
  6901  0209  3E01               	addlw	1
  6902  020A  1903               	skipnz
  6903  020B  2A0D               	goto	u5243
  6904  020C  07BC               	addwf	___flmul@grs+3,f
  6905  020D                     u5243:	
  6906  020D                     l3912:	
  6907  020D  082B               	movf	___flmul@b+1,w
  6908  020E  00B2               	movwf	??___flmul
  6909  020F  0832               	movf	??___flmul,w
  6910  0210  00F2               	movwf	__Umul8_16@multiplicand
  6911  0211  0830               	movf	___flmul@a+2,w
  6912  0212  160A  118A  247B  120A  118A  	fcall	__Umul8_16
  6913  0217  0873               	movf	?__Umul8_16+1,w
  6914  0218  1283               	bcf	3,5	;RP0=0, select bank0
  6915  0219  1303               	bcf	3,6	;RP1=0, select bank0
  6916  021A  00C3               	movwf	___flmul@temp+1
  6917  021B  0872               	movf	?__Umul8_16,w
  6918  021C  00C2               	movwf	___flmul@temp
  6919  021D  0842               	movf	___flmul@temp,w
  6920  021E  00B2               	movwf	??___flmul
  6921  021F  0843               	movf	___flmul@temp+1,w
  6922  0220  00B3               	movwf	??___flmul+1
  6923  0221  01B4               	clrf	??___flmul+2
  6924  0222  01B5               	clrf	??___flmul+3
  6925  0223  0832               	movf	??___flmul,w
  6926  0224  07BE               	addwf	___flmul@prod,f
  6927  0225  0833               	movf	??___flmul+1,w
  6928  0226  1103               	clrz
  6929  0227  1803               	skipnc
  6930  0228  3E01               	addlw	1
  6931  0229  1903               	skipnz
  6932  022A  2A2C               	goto	u5251
  6933  022B  07BF               	addwf	___flmul@prod+1,f
  6934  022C                     u5251:	
  6935  022C  0834               	movf	??___flmul+2,w
  6936  022D  1103               	clrz
  6937  022E  1803               	skipnc
  6938  022F  3E01               	addlw	1
  6939  0230  1903               	skipnz
  6940  0231  2A33               	goto	u5252
  6941  0232  07C0               	addwf	___flmul@prod+2,f
  6942  0233                     u5252:	
  6943  0233  0835               	movf	??___flmul+3,w
  6944  0234  1103               	clrz
  6945  0235  1803               	skipnc
  6946  0236  3E01               	addlw	1
  6947  0237  1903               	skipnz
  6948  0238  2A3A               	goto	u5253
  6949  0239  07C1               	addwf	___flmul@prod+3,f
  6950  023A                     u5253:	
  6951  023A                     l3914:	
  6952  023A  082C               	movf	___flmul@b+2,w
  6953  023B  00B2               	movwf	??___flmul
  6954  023C  0832               	movf	??___flmul,w
  6955  023D  00F2               	movwf	__Umul8_16@multiplicand
  6956  023E  082F               	movf	___flmul@a+1,w
  6957  023F  160A  118A  247B  120A  118A  	fcall	__Umul8_16
  6958  0244  0873               	movf	?__Umul8_16+1,w
  6959  0245  1283               	bcf	3,5	;RP0=0, select bank0
  6960  0246  1303               	bcf	3,6	;RP1=0, select bank0
  6961  0247  00C3               	movwf	___flmul@temp+1
  6962  0248  0872               	movf	?__Umul8_16,w
  6963  0249  00C2               	movwf	___flmul@temp
  6964  024A                     l3916:	
  6965  024A  0842               	movf	___flmul@temp,w
  6966  024B  00B2               	movwf	??___flmul
  6967  024C  0843               	movf	___flmul@temp+1,w
  6968  024D  00B3               	movwf	??___flmul+1
  6969  024E  01B4               	clrf	??___flmul+2
  6970  024F  01B5               	clrf	??___flmul+3
  6971  0250  0832               	movf	??___flmul,w
  6972  0251  07BE               	addwf	___flmul@prod,f
  6973  0252  0833               	movf	??___flmul+1,w
  6974  0253  1103               	clrz
  6975  0254  1803               	skipnc
  6976  0255  3E01               	addlw	1
  6977  0256  1903               	skipnz
  6978  0257  2A59               	goto	u5261
  6979  0258  07BF               	addwf	___flmul@prod+1,f
  6980  0259                     u5261:	
  6981  0259  0834               	movf	??___flmul+2,w
  6982  025A  1103               	clrz
  6983  025B  1803               	skipnc
  6984  025C  3E01               	addlw	1
  6985  025D  1903               	skipnz
  6986  025E  2A60               	goto	u5262
  6987  025F  07C0               	addwf	___flmul@prod+2,f
  6988  0260                     u5262:	
  6989  0260  0835               	movf	??___flmul+3,w
  6990  0261  1103               	clrz
  6991  0262  1803               	skipnc
  6992  0263  3E01               	addlw	1
  6993  0264  1903               	skipnz
  6994  0265  2A67               	goto	u5263
  6995  0266  07C1               	addwf	___flmul@prod+3,f
  6996  0267                     u5263:	
  6997  0267  082C               	movf	___flmul@b+2,w
  6998  0268  00B2               	movwf	??___flmul
  6999  0269  0832               	movf	??___flmul,w
  7000  026A  00F2               	movwf	__Umul8_16@multiplicand
  7001  026B  0830               	movf	___flmul@a+2,w
  7002  026C  160A  118A  247B  120A  118A  	fcall	__Umul8_16
  7003  0271  0873               	movf	?__Umul8_16+1,w
  7004  0272  1283               	bcf	3,5	;RP0=0, select bank0
  7005  0273  1303               	bcf	3,6	;RP1=0, select bank0
  7006  0274  00C3               	movwf	___flmul@temp+1
  7007  0275  0872               	movf	?__Umul8_16,w
  7008  0276  00C2               	movwf	___flmul@temp
  7009  0277                     l3918:	
  7010  0277  0842               	movf	___flmul@temp,w
  7011  0278  00B2               	movwf	??___flmul
  7012  0279  0843               	movf	___flmul@temp+1,w
  7013  027A  00B3               	movwf	??___flmul+1
  7014  027B  01B4               	clrf	??___flmul+2
  7015  027C  01B5               	clrf	??___flmul+3
  7016  027D  3008               	movlw	8
  7017  027E                     u5275:	
  7018  027E  1003               	clrc
  7019  027F  0DB2               	rlf	??___flmul,f
  7020  0280  0DB3               	rlf	??___flmul+1,f
  7021  0281  0DB4               	rlf	??___flmul+2,f
  7022  0282  0DB5               	rlf	??___flmul+3,f
  7023  0283                     u5270:	
  7024  0283  3EFF               	addlw	-1
  7025  0284  1D03               	skipz
  7026  0285  2A7E               	goto	u5275
  7027  0286  0832               	movf	??___flmul,w
  7028  0287  07BE               	addwf	___flmul@prod,f
  7029  0288  0833               	movf	??___flmul+1,w
  7030  0289  1103               	clrz
  7031  028A  1803               	skipnc
  7032  028B  3E01               	addlw	1
  7033  028C  1903               	skipnz
  7034  028D  2A8F               	goto	u5281
  7035  028E  07BF               	addwf	___flmul@prod+1,f
  7036  028F                     u5281:	
  7037  028F  0834               	movf	??___flmul+2,w
  7038  0290  1103               	clrz
  7039  0291  1803               	skipnc
  7040  0292  3E01               	addlw	1
  7041  0293  1903               	skipnz
  7042  0294  2A96               	goto	u5282
  7043  0295  07C0               	addwf	___flmul@prod+2,f
  7044  0296                     u5282:	
  7045  0296  0835               	movf	??___flmul+3,w
  7046  0297  1103               	clrz
  7047  0298  1803               	skipnc
  7048  0299  3E01               	addlw	1
  7049  029A  1903               	skipnz
  7050  029B  2A9D               	goto	u5283
  7051  029C  07C1               	addwf	___flmul@prod+3,f
  7052  029D                     u5283:	
  7053  029D                     l3920:	
  7054  029D  0839               	movf	___flmul@grs,w
  7055  029E  00B2               	movwf	??___flmul
  7056  029F  083A               	movf	___flmul@grs+1,w
  7057  02A0  00B3               	movwf	??___flmul+1
  7058  02A1  083B               	movf	___flmul@grs+2,w
  7059  02A2  00B4               	movwf	??___flmul+2
  7060  02A3  083C               	movf	___flmul@grs+3,w
  7061  02A4  00B5               	movwf	??___flmul+3
  7062  02A5  3018               	movlw	24
  7063  02A6                     u5295:	
  7064  02A6  1003               	clrc
  7065  02A7  0CB5               	rrf	??___flmul+3,f
  7066  02A8  0CB4               	rrf	??___flmul+2,f
  7067  02A9  0CB3               	rrf	??___flmul+1,f
  7068  02AA  0CB2               	rrf	??___flmul,f
  7069  02AB                     u5290:	
  7070  02AB  3EFF               	addlw	-1
  7071  02AC  1D03               	skipz
  7072  02AD  2AA6               	goto	u5295
  7073  02AE  0832               	movf	??___flmul,w
  7074  02AF  07BE               	addwf	___flmul@prod,f
  7075  02B0  0833               	movf	??___flmul+1,w
  7076  02B1  1103               	clrz
  7077  02B2  1803               	skipnc
  7078  02B3  3E01               	addlw	1
  7079  02B4  1903               	skipnz
  7080  02B5  2AB7               	goto	u5301
  7081  02B6  07BF               	addwf	___flmul@prod+1,f
  7082  02B7                     u5301:	
  7083  02B7  0834               	movf	??___flmul+2,w
  7084  02B8  1103               	clrz
  7085  02B9  1803               	skipnc
  7086  02BA  3E01               	addlw	1
  7087  02BB  1903               	skipnz
  7088  02BC  2ABE               	goto	u5302
  7089  02BD  07C0               	addwf	___flmul@prod+2,f
  7090  02BE                     u5302:	
  7091  02BE  0835               	movf	??___flmul+3,w
  7092  02BF  1103               	clrz
  7093  02C0  1803               	skipnc
  7094  02C1  3E01               	addlw	1
  7095  02C2  1903               	skipnz
  7096  02C3  2AC5               	goto	u5303
  7097  02C4  07C1               	addwf	___flmul@prod+3,f
  7098  02C5                     u5303:	
  7099  02C5                     l3922:	
  7100  02C5  3008               	movlw	8
  7101  02C6  00B2               	movwf	??___flmul
  7102  02C7                     u5315:	
  7103  02C7  1003               	clrc
  7104  02C8  0DB9               	rlf	___flmul@grs,f
  7105  02C9  0DBA               	rlf	___flmul@grs+1,f
  7106  02CA  0DBB               	rlf	___flmul@grs+2,f
  7107  02CB  0DBC               	rlf	___flmul@grs+3,f
  7108  02CC  0BB2               	decfsz	??___flmul,f
  7109  02CD  2AC7               	goto	u5315
  7110  02CE                     l3924:	
  7111  02CE  083D               	movf	___flmul@bexp,w
  7112  02CF  0738               	addwf	___flmul@aexp,w
  7113  02D0  00B2               	movwf	??___flmul
  7114  02D1  01B3               	clrf	??___flmul+1
  7115  02D2  0DB3               	rlf	??___flmul+1,f
  7116  02D3  0832               	movf	??___flmul,w
  7117  02D4  3E82               	addlw	130
  7118  02D5  00C2               	movwf	___flmul@temp
  7119  02D6  0833               	movf	??___flmul+1,w
  7120  02D7  1803               	skipnc
  7121  02D8  3E01               	addlw	1
  7122  02D9  3EFF               	addlw	255
  7123  02DA  00C3               	movwf	___flmul@temp+1
  7124  02DB  2AF9               	goto	l3936
  7125  02DC                     l3926:	
  7126  02DC  3001               	movlw	1
  7127  02DD  00B2               	movwf	??___flmul
  7128  02DE                     u5325:	
  7129  02DE  1003               	clrc
  7130  02DF  0DBE               	rlf	___flmul@prod,f
  7131  02E0  0DBF               	rlf	___flmul@prod+1,f
  7132  02E1  0DC0               	rlf	___flmul@prod+2,f
  7133  02E2  0DC1               	rlf	___flmul@prod+3,f
  7134  02E3  0BB2               	decfsz	??___flmul,f
  7135  02E4  2ADE               	goto	u5325
  7136  02E5                     l3928:	
  7137  02E5  1FBC               	btfss	___flmul@grs+3,7
  7138  02E6  2AE8               	goto	u5331
  7139  02E7  2AE9               	goto	u5330
  7140  02E8                     u5331:	
  7141  02E8  2AEA               	goto	l3932
  7142  02E9                     u5330:	
  7143  02E9                     l3930:	
  7144  02E9  143E               	bsf	___flmul@prod,0
  7145  02EA                     l3932:	
  7146  02EA  3001               	movlw	1
  7147  02EB  00B2               	movwf	??___flmul
  7148  02EC                     u5345:	
  7149  02EC  1003               	clrc
  7150  02ED  0DB9               	rlf	___flmul@grs,f
  7151  02EE  0DBA               	rlf	___flmul@grs+1,f
  7152  02EF  0DBB               	rlf	___flmul@grs+2,f
  7153  02F0  0DBC               	rlf	___flmul@grs+3,f
  7154  02F1  0BB2               	decfsz	??___flmul,f
  7155  02F2  2AEC               	goto	u5345
  7156  02F3                     l3934:	
  7157  02F3  30FF               	movlw	255
  7158  02F4  07C2               	addwf	___flmul@temp,f
  7159  02F5  1803               	skipnc
  7160  02F6  0AC3               	incf	___flmul@temp+1,f
  7161  02F7  30FF               	movlw	255
  7162  02F8  07C3               	addwf	___flmul@temp+1,f
  7163  02F9                     l3936:	
  7164  02F9  1FC0               	btfss	___flmul@prod+2,7
  7165  02FA  2AFC               	goto	u5351
  7166  02FB  2AFD               	goto	u5350
  7167  02FC                     u5351:	
  7168  02FC  2ADC               	goto	l3926
  7169  02FD                     u5350:	
  7170  02FD                     l3938:	
  7171  02FD  01B8               	clrf	___flmul@aexp
  7172  02FE                     l3940:	
  7173  02FE  1FBC               	btfss	___flmul@grs+3,7
  7174  02FF  2B01               	goto	u5361
  7175  0300  2B02               	goto	u5360
  7176  0301                     u5361:	
  7177  0301  2B1E               	goto	l3948
  7178  0302                     u5360:	
  7179  0302                     l3942:	
  7180  0302  30FF               	movlw	255
  7181  0303  0539               	andwf	___flmul@grs,w
  7182  0304  00B2               	movwf	??___flmul
  7183  0305  30FF               	movlw	255
  7184  0306  053A               	andwf	___flmul@grs+1,w
  7185  0307  00B3               	movwf	??___flmul+1
  7186  0308  30FF               	movlw	255
  7187  0309  053B               	andwf	___flmul@grs+2,w
  7188  030A  00B4               	movwf	??___flmul+2
  7189  030B  307F               	movlw	127
  7190  030C  053C               	andwf	___flmul@grs+3,w
  7191  030D  00B5               	movwf	??___flmul+3
  7192  030E  0835               	movf	??___flmul+3,w
  7193  030F  0434               	iorwf	??___flmul+2,w
  7194  0310  0433               	iorwf	??___flmul+1,w
  7195  0311  0432               	iorwf	??___flmul,w
  7196  0312  1903               	skipnz
  7197  0313  2B15               	goto	u5371
  7198  0314  2B16               	goto	u5370
  7199  0315                     u5371:	
  7200  0315  2B19               	goto	l827
  7201  0316                     u5370:	
  7202  0316                     l3944:	
  7203  0316  01B8               	clrf	___flmul@aexp
  7204  0317  0AB8               	incf	___flmul@aexp,f
  7205  0318  2B1E               	goto	l3948
  7206  0319                     l827:	
  7207  0319  1C3E               	btfss	___flmul@prod,0
  7208  031A  2B1C               	goto	u5381
  7209  031B  2B1D               	goto	u5380
  7210  031C                     u5381:	
  7211  031C  2B1E               	goto	l3948
  7212  031D                     u5380:	
  7213  031D  2B16               	goto	l3944
  7214  031E                     l3948:	
  7215  031E  0838               	movf	___flmul@aexp,w
  7216  031F  1903               	btfsc	3,2
  7217  0320  2B22               	goto	u5391
  7218  0321  2B23               	goto	u5390
  7219  0322                     u5391:	
  7220  0322  2B54               	goto	l3958
  7221  0323                     u5390:	
  7222  0323                     l3950:	
  7223  0323  3001               	movlw	1
  7224  0324  07BE               	addwf	___flmul@prod,f
  7225  0325  3000               	movlw	0
  7226  0326  1803               	skipnc
  7227  0327  3001               	movlw	1
  7228  0328  07BF               	addwf	___flmul@prod+1,f
  7229  0329  3000               	movlw	0
  7230  032A  1803               	skipnc
  7231  032B  3001               	movlw	1
  7232  032C  07C0               	addwf	___flmul@prod+2,f
  7233  032D  3000               	movlw	0
  7234  032E  1803               	skipnc
  7235  032F  3001               	movlw	1
  7236  0330  07C1               	addwf	___flmul@prod+3,f
  7237  0331                     l3952:	
  7238  0331  1C41               	btfss	___flmul@prod+3,0
  7239  0332  2B34               	goto	u5401
  7240  0333  2B35               	goto	u5400
  7241  0334                     u5401:	
  7242  0334  2B54               	goto	l3958
  7243  0335                     u5400:	
  7244  0335                     l3954:	
  7245  0335  083E               	movf	___flmul@prod,w
  7246  0336  00B2               	movwf	??___flmul
  7247  0337  083F               	movf	___flmul@prod+1,w
  7248  0338  00B3               	movwf	??___flmul+1
  7249  0339  0840               	movf	___flmul@prod+2,w
  7250  033A  00B4               	movwf	??___flmul+2
  7251  033B  0841               	movf	___flmul@prod+3,w
  7252  033C  00B5               	movwf	??___flmul+3
  7253  033D  3001               	movlw	1
  7254  033E  00B6               	movwf	??___flmul+4
  7255  033F                     u5415:	
  7256  033F  0D35               	rlf	??___flmul+3,w
  7257  0340  0CB5               	rrf	??___flmul+3,f
  7258  0341  0CB4               	rrf	??___flmul+2,f
  7259  0342  0CB3               	rrf	??___flmul+1,f
  7260  0343  0CB2               	rrf	??___flmul,f
  7261  0344                     u5410:	
  7262  0344  0BB6               	decfsz	??___flmul+4,f
  7263  0345  2B3F               	goto	u5415
  7264  0346  0835               	movf	??___flmul+3,w
  7265  0347  00C1               	movwf	___flmul@prod+3
  7266  0348  0834               	movf	??___flmul+2,w
  7267  0349  00C0               	movwf	___flmul@prod+2
  7268  034A  0833               	movf	??___flmul+1,w
  7269  034B  00BF               	movwf	___flmul@prod+1
  7270  034C  0832               	movf	??___flmul,w
  7271  034D  00BE               	movwf	___flmul@prod
  7272  034E                     l3956:	
  7273  034E  3001               	movlw	1
  7274  034F  07C2               	addwf	___flmul@temp,f
  7275  0350  1803               	skipnc
  7276  0351  0AC3               	incf	___flmul@temp+1,f
  7277  0352  3000               	movlw	0
  7278  0353  07C3               	addwf	___flmul@temp+1,f
  7279  0354                     l3958:	
  7280  0354  0843               	movf	___flmul@temp+1,w
  7281  0355  3A80               	xorlw	128
  7282  0356  00FF               	movwf	btemp+1
  7283  0357  3080               	movlw	128
  7284  0358  027F               	subwf	btemp+1,w
  7285  0359  1D03               	skipz
  7286  035A  2B5D               	goto	u5425
  7287  035B  30FF               	movlw	255
  7288  035C  0242               	subwf	___flmul@temp,w
  7289  035D                     u5425:	
  7290  035D  1C03               	skipc
  7291  035E  2B60               	goto	u5421
  7292  035F  2B61               	goto	u5420
  7293  0360                     u5421:	
  7294  0360  2B6C               	goto	l3962
  7295  0361                     u5420:	
  7296  0361                     l3960:	
  7297  0361  307F               	movlw	127
  7298  0362  1283               	bcf	3,5	;RP0=0, select bank0
  7299  0363  1303               	bcf	3,6	;RP1=0, select bank0
  7300  0364  00C1               	movwf	___flmul@prod+3
  7301  0365  3080               	movlw	128
  7302  0366  00C0               	movwf	___flmul@prod+2
  7303  0367  3000               	movlw	0
  7304  0368  00BF               	movwf	___flmul@prod+1
  7305  0369  3000               	movlw	0
  7306  036A  00BE               	movwf	___flmul@prod
  7307  036B  2BA1               	goto	l833
  7308  036C                     l3962:	
  7309  036C  1283               	bcf	3,5	;RP0=0, select bank0
  7310  036D  1303               	bcf	3,6	;RP1=0, select bank0
  7311  036E  0843               	movf	___flmul@temp+1,w
  7312  036F  3A80               	xorlw	128
  7313  0370  00FF               	movwf	btemp+1
  7314  0371  3080               	movlw	128
  7315  0372  027F               	subwf	btemp+1,w
  7316  0373  1D03               	skipz
  7317  0374  2B77               	goto	u5435
  7318  0375  3001               	movlw	1
  7319  0376  0242               	subwf	___flmul@temp,w
  7320  0377                     u5435:	
  7321  0377  1803               	skipnc
  7322  0378  2B7A               	goto	u5431
  7323  0379  2B7B               	goto	u5430
  7324  037A                     u5431:	
  7325  037A  2B87               	goto	l3968
  7326  037B                     u5430:	
  7327  037B                     l3964:	
  7328  037B  3000               	movlw	0
  7329  037C  1283               	bcf	3,5	;RP0=0, select bank0
  7330  037D  1303               	bcf	3,6	;RP1=0, select bank0
  7331  037E  00C1               	movwf	___flmul@prod+3
  7332  037F  3000               	movlw	0
  7333  0380  00C0               	movwf	___flmul@prod+2
  7334  0381  3000               	movlw	0
  7335  0382  00BF               	movwf	___flmul@prod+1
  7336  0383  3000               	movlw	0
  7337  0384  00BE               	movwf	___flmul@prod
  7338  0385                     l3966:	
  7339  0385  01B7               	clrf	___flmul@sign
  7340  0386  2BA1               	goto	l833
  7341  0387                     l3968:	
  7342  0387  1283               	bcf	3,5	;RP0=0, select bank0
  7343  0388  1303               	bcf	3,6	;RP1=0, select bank0
  7344  0389  0842               	movf	___flmul@temp,w
  7345  038A  00B2               	movwf	??___flmul
  7346  038B  0832               	movf	??___flmul,w
  7347  038C  00BD               	movwf	___flmul@bexp
  7348  038D  30FF               	movlw	255
  7349  038E  05BE               	andwf	___flmul@prod,f
  7350  038F  30FF               	movlw	255
  7351  0390  05BF               	andwf	___flmul@prod+1,f
  7352  0391  307F               	movlw	127
  7353  0392  05C0               	andwf	___flmul@prod+2,f
  7354  0393  3000               	movlw	0
  7355  0394  05C1               	andwf	___flmul@prod+3,f
  7356  0395                     l3970:	
  7357  0395  1C3D               	btfss	___flmul@bexp,0
  7358  0396  2B98               	goto	u5441
  7359  0397  2B99               	goto	u5440
  7360  0398                     u5441:	
  7361  0398  2B9A               	goto	l3974
  7362  0399                     u5440:	
  7363  0399                     l3972:	
  7364  0399  17C0               	bsf	___flmul@prod+2,7
  7365  039A                     l3974:	
  7366  039A  083D               	movf	___flmul@bexp,w
  7367  039B  00B2               	movwf	??___flmul
  7368  039C  1003               	clrc
  7369  039D  0C32               	rrf	??___flmul,w
  7370  039E  00B3               	movwf	??___flmul+1
  7371  039F  0833               	movf	??___flmul+1,w
  7372  03A0  00C1               	movwf	___flmul@prod+3
  7373  03A1                     l833:	
  7374  03A1  0837               	movf	___flmul@sign,w
  7375  03A2  00B2               	movwf	??___flmul
  7376  03A3  0832               	movf	??___flmul,w
  7377  03A4  04C1               	iorwf	___flmul@prod+3,f
  7378  03A5                     l3976:	
  7379  03A5  0841               	movf	___flmul@prod+3,w
  7380  03A6  00AD               	movwf	?___flmul+3
  7381  03A7  0840               	movf	___flmul@prod+2,w
  7382  03A8  00AC               	movwf	?___flmul+2
  7383  03A9  083F               	movf	___flmul@prod+1,w
  7384  03AA  00AB               	movwf	?___flmul+1
  7385  03AB  083E               	movf	___flmul@prod,w
  7386  03AC  00AA               	movwf	?___flmul
  7387  03AD                     l821:	
  7388  03AD  0008               	return
  7389  03AE                     __end_of___flmul:	
  7390                           
  7391                           	psect	text26
  7392  147B                     __ptext26:	
  7393 ;; *************** function __Umul8_16 *****************
  7394 ;; Defined at:
  7395 ;;		line 4 in file "C:\Program Files (x86)\Microchip\xc8\v2.10\pic\sources\c90\common\Umul8_16.c"
  7396 ;; Parameters:    Size  Location     Type
  7397 ;;  multiplier      1    wreg     unsigned char 
  7398 ;;  multiplicand    1    2[COMMON] unsigned char 
  7399 ;; Auto vars:     Size  Location     Type
  7400 ;;  multiplier      1    4[BANK0 ] unsigned char 
  7401 ;;  word_mpld       2    2[BANK0 ] unsigned int 
  7402 ;;  product         2    0[BANK0 ] unsigned int 
  7403 ;; Return value:  Size  Location     Type
  7404 ;;                  2    2[COMMON] unsigned int 
  7405 ;; Registers used:
  7406 ;;		wreg, status,2, status,0
  7407 ;; Tracked objects:
  7408 ;;		On entry : 0/0
  7409 ;;		On exit  : 0/0
  7410 ;;		Unchanged: 0/0
  7411 ;; Data sizes:     COMMON   BANK0   BANK1   BANK3   BANK2
  7412 ;;      Params:         2       0       0       0       0
  7413 ;;      Locals:         0       5       0       0       0
  7414 ;;      Temps:          2       0       0       0       0
  7415 ;;      Totals:         4       5       0       0       0
  7416 ;;Total ram usage:        9 bytes
  7417 ;; Hardware stack levels used:    1
  7418 ;; Hardware stack levels required when called:    1
  7419 ;; This function calls:
  7420 ;;		Nothing
  7421 ;; This function is called by:
  7422 ;;		___flmul
  7423 ;; This function uses a non-reentrant model
  7424 ;;
  7425                           
  7426                           
  7427                           ;psect for function __Umul8_16
  7428  147B                     __Umul8_16:	
  7429                           
  7430                           ;incstack = 0
  7431                           ; Regs used in __Umul8_16: [wreg+status,2+status,0]
  7432                           ;__Umul8_16@multiplier stored from wreg
  7433  147B  1283               	bcf	3,5	;RP0=0, select bank0
  7434  147C  1303               	bcf	3,6	;RP1=0, select bank0
  7435  147D  00A4               	movwf	__Umul8_16@multiplier
  7436  147E                     l3460:	
  7437  147E  01A0               	clrf	__Umul8_16@product
  7438  147F  01A1               	clrf	__Umul8_16@product+1
  7439  1480                     l3462:	
  7440  1480  0872               	movf	__Umul8_16@multiplicand,w
  7441  1481  00F4               	movwf	??__Umul8_16
  7442  1482  01F5               	clrf	??__Umul8_16+1
  7443  1483  0874               	movf	??__Umul8_16,w
  7444  1484  00A2               	movwf	__Umul8_16@word_mpld
  7445  1485  0875               	movf	??__Umul8_16+1,w
  7446  1486  00A3               	movwf	__Umul8_16@word_mpld+1
  7447  1487                     l3464:	
  7448  1487  1C24               	btfss	__Umul8_16@multiplier,0
  7449  1488  2C8A               	goto	u4311
  7450  1489  2C8B               	goto	u4310
  7451  148A                     u4311:	
  7452  148A  2C91               	goto	l878
  7453  148B                     u4310:	
  7454  148B                     l3466:	
  7455  148B  0822               	movf	__Umul8_16@word_mpld,w
  7456  148C  07A0               	addwf	__Umul8_16@product,f
  7457  148D  1803               	skipnc
  7458  148E  0AA1               	incf	__Umul8_16@product+1,f
  7459  148F  0823               	movf	__Umul8_16@word_mpld+1,w
  7460  1490  07A1               	addwf	__Umul8_16@product+1,f
  7461  1491                     l878:	
  7462  1491  3001               	movlw	1
  7463  1492                     u4325:	
  7464  1492  1003               	clrc
  7465  1493  0DA2               	rlf	__Umul8_16@word_mpld,f
  7466  1494  0DA3               	rlf	__Umul8_16@word_mpld+1,f
  7467  1495  3EFF               	addlw	-1
  7468  1496  1D03               	skipz
  7469  1497  2C92               	goto	u4325
  7470  1498  1003               	clrc
  7471  1499  0CA4               	rrf	__Umul8_16@multiplier,f
  7472  149A                     l3468:	
  7473  149A  0824               	movf	__Umul8_16@multiplier,w
  7474  149B  1D03               	btfss	3,2
  7475  149C  2C9E               	goto	u4331
  7476  149D  2C9F               	goto	u4330
  7477  149E                     u4331:	
  7478  149E  2C87               	goto	l3464
  7479  149F                     u4330:	
  7480  149F                     l3470:	
  7481  149F  0821               	movf	__Umul8_16@product+1,w
  7482  14A0  00F3               	movwf	?__Umul8_16+1
  7483  14A1  0820               	movf	__Umul8_16@product,w
  7484  14A2  00F2               	movwf	?__Umul8_16
  7485  14A3                     l880:	
  7486  14A3  0008               	return
  7487  14A4                     __end_of__Umul8_16:	
  7488                           
  7489                           	psect	text27
  7490  0D78                     __ptext27:	
  7491 ;; *************** function ___fladd *****************
  7492 ;; Defined at:
  7493 ;;		line 10 in file "C:\Program Files (x86)\Microchip\xc8\v2.10\pic\sources\c90\common\sprcadd.c"
  7494 ;; Parameters:    Size  Location     Type
  7495 ;;  b               4   36[BANK0 ] unsigned int 
  7496 ;;  a               4   40[BANK0 ] unsigned int 
  7497 ;; Auto vars:     Size  Location     Type
  7498 ;;  grs             1   55[BANK0 ] unsigned char 
  7499 ;;  bexp            1   54[BANK0 ] unsigned char 
  7500 ;;  aexp            1   53[BANK0 ] unsigned char 
  7501 ;;  signs           1   52[BANK0 ] unsigned char 
  7502 ;; Return value:  Size  Location     Type
  7503 ;;                  4   36[BANK0 ] unsigned char 
  7504 ;; Registers used:
  7505 ;;		wreg, status,2, status,0, btemp+1
  7506 ;; Tracked objects:
  7507 ;;		On entry : 0/0
  7508 ;;		On exit  : 0/0
  7509 ;;		Unchanged: 0/0
  7510 ;; Data sizes:     COMMON   BANK0   BANK1   BANK3   BANK2
  7511 ;;      Params:         0       8       0       0       0
  7512 ;;      Locals:         0       4       0       0       0
  7513 ;;      Temps:          0       8       0       0       0
  7514 ;;      Totals:         0      20       0       0       0
  7515 ;;Total ram usage:       20 bytes
  7516 ;; Hardware stack levels used:    1
  7517 ;; Hardware stack levels required when called:    1
  7518 ;; This function calls:
  7519 ;;		Nothing
  7520 ;; This function is called by:
  7521 ;;		_ADC_Read
  7522 ;; This function uses a non-reentrant model
  7523 ;;
  7524                           
  7525                           
  7526                           ;psect for function ___fladd
  7527  0D78                     ___fladd:	
  7528  0D78                     l3646:	
  7529                           ;incstack = 0
  7530                           ; Regs used in ___fladd: [wreg+status,2+status,0+btemp+1]
  7531                           
  7532  0D78  1283               	bcf	3,5	;RP0=0, select bank0
  7533  0D79  1303               	bcf	3,6	;RP1=0, select bank0
  7534  0D7A  0847               	movf	___fladd@b+3,w
  7535  0D7B  3980               	andlw	128
  7536  0D7C  00CC               	movwf	??___fladd
  7537  0D7D  084C               	movf	??___fladd,w
  7538  0D7E  00D4               	movwf	___fladd@signs
  7539  0D7F                     l3648:	
  7540  0D7F  0847               	movf	___fladd@b+3,w
  7541  0D80  00CC               	movwf	??___fladd
  7542  0D81  074C               	addwf	??___fladd,w
  7543  0D82  00CD               	movwf	??___fladd+1
  7544  0D83  084D               	movf	??___fladd+1,w
  7545  0D84  00D6               	movwf	___fladd@bexp
  7546  0D85                     l3650:	
  7547  0D85  1FC6               	btfss	___fladd@b+2,7
  7548  0D86  2D88               	goto	u4621
  7549  0D87  2D89               	goto	u4620
  7550  0D88                     u4621:	
  7551  0D88  2D8A               	goto	l3654
  7552  0D89                     u4620:	
  7553  0D89                     l3652:	
  7554  0D89  1456               	bsf	___fladd@bexp,0
  7555  0D8A                     l3654:	
  7556  0D8A  0856               	movf	___fladd@bexp,w
  7557  0D8B  1903               	btfsc	3,2
  7558  0D8C  2D8E               	goto	u4631
  7559  0D8D  2D8F               	goto	u4630
  7560  0D8E                     u4631:	
  7561  0D8E  2D9F               	goto	l3664
  7562  0D8F                     u4630:	
  7563  0D8F                     l3656:	
  7564  0D8F  0A56               	incf	___fladd@bexp,w
  7565  0D90  1D03               	btfss	3,2
  7566  0D91  2D93               	goto	u4641
  7567  0D92  2D94               	goto	u4640
  7568  0D93                     u4641:	
  7569  0D93  2D9C               	goto	l3660
  7570  0D94                     u4640:	
  7571  0D94                     l3658:	
  7572  0D94  3000               	movlw	0
  7573  0D95  00C7               	movwf	___fladd@b+3
  7574  0D96  3000               	movlw	0
  7575  0D97  00C6               	movwf	___fladd@b+2
  7576  0D98  3000               	movlw	0
  7577  0D99  00C5               	movwf	___fladd@b+1
  7578  0D9A  3000               	movlw	0
  7579  0D9B  00C4               	movwf	___fladd@b
  7580  0D9C                     l3660:	
  7581  0D9C  17C6               	bsf	___fladd@b+2,7
  7582  0D9D                     l3662:	
  7583  0D9D  01C7               	clrf	___fladd@b+3
  7584  0D9E  2DA7               	goto	l3666
  7585  0D9F                     l3664:	
  7586  0D9F  3000               	movlw	0
  7587  0DA0  00C7               	movwf	___fladd@b+3
  7588  0DA1  3000               	movlw	0
  7589  0DA2  00C6               	movwf	___fladd@b+2
  7590  0DA3  3000               	movlw	0
  7591  0DA4  00C5               	movwf	___fladd@b+1
  7592  0DA5  3000               	movlw	0
  7593  0DA6  00C4               	movwf	___fladd@b
  7594  0DA7                     l3666:	
  7595  0DA7  084B               	movf	___fladd@a+3,w
  7596  0DA8  3980               	andlw	128
  7597  0DA9  00CC               	movwf	??___fladd
  7598  0DAA  084C               	movf	??___fladd,w
  7599  0DAB  00D5               	movwf	___fladd@aexp
  7600  0DAC                     l3668:	
  7601  0DAC  0855               	movf	___fladd@aexp,w
  7602  0DAD  0654               	xorwf	___fladd@signs,w
  7603  0DAE  1903               	skipnz
  7604  0DAF  2DB1               	goto	u4651
  7605  0DB0  2DB2               	goto	u4650
  7606  0DB1                     u4651:	
  7607  0DB1  2DB3               	goto	l3672
  7608  0DB2                     u4650:	
  7609  0DB2                     l3670:	
  7610  0DB2  1754               	bsf	___fladd@signs,6
  7611  0DB3                     l3672:	
  7612  0DB3  084B               	movf	___fladd@a+3,w
  7613  0DB4  00CC               	movwf	??___fladd
  7614  0DB5  074C               	addwf	??___fladd,w
  7615  0DB6  00CD               	movwf	??___fladd+1
  7616  0DB7  084D               	movf	??___fladd+1,w
  7617  0DB8  00D5               	movwf	___fladd@aexp
  7618  0DB9                     l3674:	
  7619  0DB9  1FCA               	btfss	___fladd@a+2,7
  7620  0DBA  2DBC               	goto	u4661
  7621  0DBB  2DBD               	goto	u4660
  7622  0DBC                     u4661:	
  7623  0DBC  2DBE               	goto	l3678
  7624  0DBD                     u4660:	
  7625  0DBD                     l3676:	
  7626  0DBD  1455               	bsf	___fladd@aexp,0
  7627  0DBE                     l3678:	
  7628  0DBE  0855               	movf	___fladd@aexp,w
  7629  0DBF  1903               	btfsc	3,2
  7630  0DC0  2DC2               	goto	u4671
  7631  0DC1  2DC3               	goto	u4670
  7632  0DC2                     u4671:	
  7633  0DC2  2DD3               	goto	l3688
  7634  0DC3                     u4670:	
  7635  0DC3                     l3680:	
  7636  0DC3  0A55               	incf	___fladd@aexp,w
  7637  0DC4  1D03               	btfss	3,2
  7638  0DC5  2DC7               	goto	u4681
  7639  0DC6  2DC8               	goto	u4680
  7640  0DC7                     u4681:	
  7641  0DC7  2DD0               	goto	l3684
  7642  0DC8                     u4680:	
  7643  0DC8                     l3682:	
  7644  0DC8  3000               	movlw	0
  7645  0DC9  00CB               	movwf	___fladd@a+3
  7646  0DCA  3000               	movlw	0
  7647  0DCB  00CA               	movwf	___fladd@a+2
  7648  0DCC  3000               	movlw	0
  7649  0DCD  00C9               	movwf	___fladd@a+1
  7650  0DCE  3000               	movlw	0
  7651  0DCF  00C8               	movwf	___fladd@a
  7652  0DD0                     l3684:	
  7653  0DD0  17CA               	bsf	___fladd@a+2,7
  7654  0DD1                     l3686:	
  7655  0DD1  01CB               	clrf	___fladd@a+3
  7656  0DD2  2DDB               	goto	l725
  7657  0DD3                     l3688:	
  7658  0DD3  3000               	movlw	0
  7659  0DD4  00CB               	movwf	___fladd@a+3
  7660  0DD5  3000               	movlw	0
  7661  0DD6  00CA               	movwf	___fladd@a+2
  7662  0DD7  3000               	movlw	0
  7663  0DD8  00C9               	movwf	___fladd@a+1
  7664  0DD9  3000               	movlw	0
  7665  0DDA  00C8               	movwf	___fladd@a
  7666  0DDB                     l725:	
  7667  0DDB  0856               	movf	___fladd@bexp,w
  7668  0DDC  0255               	subwf	___fladd@aexp,w
  7669  0DDD  1803               	skipnc
  7670  0DDE  2DE0               	goto	u4691
  7671  0DDF  2DE1               	goto	u4690
  7672  0DE0                     u4691:	
  7673  0DE0  2E25               	goto	l3724
  7674  0DE1                     u4690:	
  7675  0DE1                     l3690:	
  7676  0DE1  1F54               	btfss	___fladd@signs,6
  7677  0DE2  2DE4               	goto	u4701
  7678  0DE3  2DE5               	goto	u4700
  7679  0DE4                     u4701:	
  7680  0DE4  2DE9               	goto	l3694
  7681  0DE5                     u4700:	
  7682  0DE5                     l3692:	
  7683  0DE5  3080               	movlw	128
  7684  0DE6  00CC               	movwf	??___fladd
  7685  0DE7  084C               	movf	??___fladd,w
  7686  0DE8  06D4               	xorwf	___fladd@signs,f
  7687  0DE9                     l3694:	
  7688  0DE9  0856               	movf	___fladd@bexp,w
  7689  0DEA  00CC               	movwf	??___fladd
  7690  0DEB  084C               	movf	??___fladd,w
  7691  0DEC  00D7               	movwf	___fladd@grs
  7692  0DED                     l3696:	
  7693  0DED  0855               	movf	___fladd@aexp,w
  7694  0DEE  00CC               	movwf	??___fladd
  7695  0DEF  084C               	movf	??___fladd,w
  7696  0DF0  00D6               	movwf	___fladd@bexp
  7697  0DF1                     l3698:	
  7698  0DF1  0857               	movf	___fladd@grs,w
  7699  0DF2  00CC               	movwf	??___fladd
  7700  0DF3  084C               	movf	??___fladd,w
  7701  0DF4  00D5               	movwf	___fladd@aexp
  7702  0DF5                     l3700:	
  7703  0DF5  0844               	movf	___fladd@b,w
  7704  0DF6  00CC               	movwf	??___fladd
  7705  0DF7  084C               	movf	??___fladd,w
  7706  0DF8  00D7               	movwf	___fladd@grs
  7707  0DF9                     l3702:	
  7708  0DF9  0848               	movf	___fladd@a,w
  7709  0DFA  00CC               	movwf	??___fladd
  7710  0DFB  084C               	movf	??___fladd,w
  7711  0DFC  00C4               	movwf	___fladd@b
  7712  0DFD                     l3704:	
  7713  0DFD  0857               	movf	___fladd@grs,w
  7714  0DFE  00CC               	movwf	??___fladd
  7715  0DFF  084C               	movf	??___fladd,w
  7716  0E00  00C8               	movwf	___fladd@a
  7717  0E01                     l3706:	
  7718  0E01  0845               	movf	___fladd@b+1,w
  7719  0E02  00CC               	movwf	??___fladd
  7720  0E03  084C               	movf	??___fladd,w
  7721  0E04  00D7               	movwf	___fladd@grs
  7722  0E05                     l3708:	
  7723  0E05  0849               	movf	___fladd@a+1,w
  7724  0E06  00CC               	movwf	??___fladd
  7725  0E07  084C               	movf	??___fladd,w
  7726  0E08  00C5               	movwf	___fladd@b+1
  7727  0E09                     l3710:	
  7728  0E09  0857               	movf	___fladd@grs,w
  7729  0E0A  00CC               	movwf	??___fladd
  7730  0E0B  084C               	movf	??___fladd,w
  7731  0E0C  00C9               	movwf	___fladd@a+1
  7732  0E0D                     l3712:	
  7733  0E0D  0846               	movf	___fladd@b+2,w
  7734  0E0E  00CC               	movwf	??___fladd
  7735  0E0F  084C               	movf	??___fladd,w
  7736  0E10  00D7               	movwf	___fladd@grs
  7737  0E11                     l3714:	
  7738  0E11  084A               	movf	___fladd@a+2,w
  7739  0E12  00CC               	movwf	??___fladd
  7740  0E13  084C               	movf	??___fladd,w
  7741  0E14  00C6               	movwf	___fladd@b+2
  7742  0E15                     l3716:	
  7743  0E15  0857               	movf	___fladd@grs,w
  7744  0E16  00CC               	movwf	??___fladd
  7745  0E17  084C               	movf	??___fladd,w
  7746  0E18  00CA               	movwf	___fladd@a+2
  7747  0E19                     l3718:	
  7748  0E19  0847               	movf	___fladd@b+3,w
  7749  0E1A  00CC               	movwf	??___fladd
  7750  0E1B  084C               	movf	??___fladd,w
  7751  0E1C  00D7               	movwf	___fladd@grs
  7752  0E1D                     l3720:	
  7753  0E1D  084B               	movf	___fladd@a+3,w
  7754  0E1E  00CC               	movwf	??___fladd
  7755  0E1F  084C               	movf	??___fladd,w
  7756  0E20  00C7               	movwf	___fladd@b+3
  7757  0E21                     l3722:	
  7758  0E21  0857               	movf	___fladd@grs,w
  7759  0E22  00CC               	movwf	??___fladd
  7760  0E23  084C               	movf	??___fladd,w
  7761  0E24  00CB               	movwf	___fladd@a+3
  7762  0E25                     l3724:	
  7763  0E25  01D7               	clrf	___fladd@grs
  7764  0E26                     l3726:	
  7765  0E26  0855               	movf	___fladd@aexp,w
  7766  0E27  00CC               	movwf	??___fladd
  7767  0E28  01CD               	clrf	??___fladd+1
  7768  0E29  084D               	movf	??___fladd+1,w
  7769  0E2A  00CF               	movwf	??___fladd+3
  7770  0E2B  0856               	movf	___fladd@bexp,w
  7771  0E2C  024C               	subwf	??___fladd,w
  7772  0E2D  00CE               	movwf	??___fladd+2
  7773  0E2E  1C03               	skipc
  7774  0E2F  03CF               	decf	??___fladd+3,f
  7775  0E30  084F               	movf	??___fladd+3,w
  7776  0E31  3A80               	xorlw	128
  7777  0E32  00FF               	movwf	btemp+1
  7778  0E33  3080               	movlw	128
  7779  0E34  027F               	subwf	btemp+1,w
  7780  0E35  1D03               	skipz
  7781  0E36  2E39               	goto	u4715
  7782  0E37  301A               	movlw	26
  7783  0E38  024E               	subwf	??___fladd+2,w
  7784  0E39                     u4715:	
  7785  0E39  1C03               	skipc
  7786  0E3A  2E3C               	goto	u4711
  7787  0E3B  2E3D               	goto	u4710
  7788  0E3C                     u4711:	
  7789  0E3C  2E7A               	goto	l3742
  7790  0E3D                     u4710:	
  7791  0E3D                     l3728:	
  7792  0E3D  1283               	bcf	3,5	;RP0=0, select bank0
  7793  0E3E  1303               	bcf	3,6	;RP1=0, select bank0
  7794  0E3F  0847               	movf	___fladd@b+3,w
  7795  0E40  0446               	iorwf	___fladd@b+2,w
  7796  0E41  0445               	iorwf	___fladd@b+1,w
  7797  0E42  0444               	iorwf	___fladd@b,w
  7798  0E43  1D03               	skipz
  7799  0E44  2E46               	goto	u4721
  7800  0E45  2E48               	goto	u4720
  7801  0E46                     u4721:	
  7802  0E46  3001               	movlw	1
  7803  0E47  2E49               	goto	u4730
  7804  0E48                     u4720:	
  7805  0E48  3000               	movlw	0
  7806  0E49                     u4730:	
  7807  0E49  00CC               	movwf	??___fladd
  7808  0E4A  084C               	movf	??___fladd,w
  7809  0E4B  00D7               	movwf	___fladd@grs
  7810  0E4C  3000               	movlw	0
  7811  0E4D  00C7               	movwf	___fladd@b+3
  7812  0E4E  3000               	movlw	0
  7813  0E4F  00C6               	movwf	___fladd@b+2
  7814  0E50  3000               	movlw	0
  7815  0E51  00C5               	movwf	___fladd@b+1
  7816  0E52  3000               	movlw	0
  7817  0E53  00C4               	movwf	___fladd@b
  7818  0E54  0855               	movf	___fladd@aexp,w
  7819  0E55  00CC               	movwf	??___fladd
  7820  0E56  084C               	movf	??___fladd,w
  7821  0E57  00D6               	movwf	___fladd@bexp
  7822  0E58  2E82               	goto	l729
  7823  0E59                     l731:	
  7824  0E59  1C57               	btfss	___fladd@grs,0
  7825  0E5A  2E5C               	goto	u4741
  7826  0E5B  2E5D               	goto	u4740
  7827  0E5C                     u4741:	
  7828  0E5C  2E66               	goto	l3732
  7829  0E5D                     u4740:	
  7830  0E5D                     l3730:	
  7831  0E5D  0857               	movf	___fladd@grs,w
  7832  0E5E  00CC               	movwf	??___fladd
  7833  0E5F  1003               	clrc
  7834  0E60  0C4C               	rrf	??___fladd,w
  7835  0E61  3801               	iorlw	1
  7836  0E62  00CD               	movwf	??___fladd+1
  7837  0E63  084D               	movf	??___fladd+1,w
  7838  0E64  00D7               	movwf	___fladd@grs
  7839  0E65  2E68               	goto	l3734
  7840  0E66                     l3732:	
  7841  0E66  1003               	clrc
  7842  0E67  0CD7               	rrf	___fladd@grs,f
  7843  0E68                     l3734:	
  7844  0E68  1C44               	btfss	___fladd@b,0
  7845  0E69  2E6B               	goto	u4751
  7846  0E6A  2E6C               	goto	u4750
  7847  0E6B                     u4751:	
  7848  0E6B  2E6D               	goto	l3738
  7849  0E6C                     u4750:	
  7850  0E6C                     l3736:	
  7851  0E6C  17D7               	bsf	___fladd@grs,7
  7852  0E6D                     l3738:	
  7853  0E6D  3001               	movlw	1
  7854  0E6E  00CC               	movwf	??___fladd
  7855  0E6F                     u4765:	
  7856  0E6F  0D47               	rlf	___fladd@b+3,w
  7857  0E70  0CC7               	rrf	___fladd@b+3,f
  7858  0E71  0CC6               	rrf	___fladd@b+2,f
  7859  0E72  0CC5               	rrf	___fladd@b+1,f
  7860  0E73  0CC4               	rrf	___fladd@b,f
  7861  0E74  0BCC               	decfsz	??___fladd& (0+127),f
  7862  0E75  2E6F               	goto	u4765
  7863  0E76                     l3740:	
  7864  0E76  3001               	movlw	1
  7865  0E77  00CC               	movwf	??___fladd
  7866  0E78  084C               	movf	??___fladd,w
  7867  0E79  07D6               	addwf	___fladd@bexp,f
  7868  0E7A                     l3742:	
  7869  0E7A  1283               	bcf	3,5	;RP0=0, select bank0
  7870  0E7B  1303               	bcf	3,6	;RP1=0, select bank0
  7871  0E7C  0855               	movf	___fladd@aexp,w
  7872  0E7D  0256               	subwf	___fladd@bexp,w
  7873  0E7E  1C03               	skipc
  7874  0E7F  2E81               	goto	u4771
  7875  0E80  2E82               	goto	u4770
  7876  0E81                     u4771:	
  7877  0E81  2E59               	goto	l731
  7878  0E82                     u4770:	
  7879  0E82                     l729:	
  7880  0E82  1B54               	btfsc	___fladd@signs,6
  7881  0E83  2E85               	goto	u4781
  7882  0E84  2E86               	goto	u4780
  7883  0E85                     u4781:	
  7884  0E85  2ED1               	goto	l3768
  7885  0E86                     u4780:	
  7886  0E86                     l3744:	
  7887  0E86  0856               	movf	___fladd@bexp,w
  7888  0E87  1D03               	btfss	3,2
  7889  0E88  2E8A               	goto	u4791
  7890  0E89  2E8B               	goto	u4790
  7891  0E8A                     u4791:	
  7892  0E8A  2E94               	goto	l3750
  7893  0E8B                     u4790:	
  7894  0E8B                     l3746:	
  7895  0E8B  3000               	movlw	0
  7896  0E8C  00C7               	movwf	?___fladd+3
  7897  0E8D  3000               	movlw	0
  7898  0E8E  00C6               	movwf	?___fladd+2
  7899  0E8F  3000               	movlw	0
  7900  0E90  00C5               	movwf	?___fladd+1
  7901  0E91  3000               	movlw	0
  7902  0E92  00C4               	movwf	?___fladd
  7903  0E93  2FFF               	goto	l738
  7904  0E94                     l3750:	
  7905  0E94  0848               	movf	___fladd@a,w
  7906  0E95  07C4               	addwf	___fladd@b,f
  7907  0E96  0849               	movf	___fladd@a+1,w
  7908  0E97  1103               	clrz
  7909  0E98  1803               	skipnc
  7910  0E99  3E01               	addlw	1
  7911  0E9A  1903               	skipnz
  7912  0E9B  2E9D               	goto	u4801
  7913  0E9C  07C5               	addwf	___fladd@b+1,f
  7914  0E9D                     u4801:	
  7915  0E9D  084A               	movf	___fladd@a+2,w
  7916  0E9E  1103               	clrz
  7917  0E9F  1803               	skipnc
  7918  0EA0  3E01               	addlw	1
  7919  0EA1  1903               	skipnz
  7920  0EA2  2EA4               	goto	u4802
  7921  0EA3  07C6               	addwf	___fladd@b+2,f
  7922  0EA4                     u4802:	
  7923  0EA4  084B               	movf	___fladd@a+3,w
  7924  0EA5  1103               	clrz
  7925  0EA6  1803               	skipnc
  7926  0EA7  3E01               	addlw	1
  7927  0EA8  1903               	skipnz
  7928  0EA9  2EAB               	goto	u4803
  7929  0EAA  07C7               	addwf	___fladd@b+3,f
  7930  0EAB                     u4803:	
  7931  0EAB                     l3752:	
  7932  0EAB  1C47               	btfss	___fladd@b+3,0
  7933  0EAC  2EAE               	goto	u4811
  7934  0EAD  2EAF               	goto	u4810
  7935  0EAE                     u4811:	
  7936  0EAE  2F85               	goto	l3802
  7937  0EAF                     u4810:	
  7938  0EAF                     l3754:	
  7939  0EAF  1C57               	btfss	___fladd@grs,0
  7940  0EB0  2EB2               	goto	u4821
  7941  0EB1  2EB3               	goto	u4820
  7942  0EB2                     u4821:	
  7943  0EB2  2EBC               	goto	l3758
  7944  0EB3                     u4820:	
  7945  0EB3                     l3756:	
  7946  0EB3  0857               	movf	___fladd@grs,w
  7947  0EB4  00CC               	movwf	??___fladd
  7948  0EB5  1003               	clrc
  7949  0EB6  0C4C               	rrf	??___fladd,w
  7950  0EB7  3801               	iorlw	1
  7951  0EB8  00CD               	movwf	??___fladd+1
  7952  0EB9  084D               	movf	??___fladd+1,w
  7953  0EBA  00D7               	movwf	___fladd@grs
  7954  0EBB  2EBE               	goto	l3760
  7955  0EBC                     l3758:	
  7956  0EBC  1003               	clrc
  7957  0EBD  0CD7               	rrf	___fladd@grs,f
  7958  0EBE                     l3760:	
  7959  0EBE  1C44               	btfss	___fladd@b,0
  7960  0EBF  2EC1               	goto	u4831
  7961  0EC0  2EC2               	goto	u4830
  7962  0EC1                     u4831:	
  7963  0EC1  2EC3               	goto	l3764
  7964  0EC2                     u4830:	
  7965  0EC2                     l3762:	
  7966  0EC2  17D7               	bsf	___fladd@grs,7
  7967  0EC3                     l3764:	
  7968  0EC3  3001               	movlw	1
  7969  0EC4  00CC               	movwf	??___fladd
  7970  0EC5                     u4845:	
  7971  0EC5  0D47               	rlf	___fladd@b+3,w
  7972  0EC6  0CC7               	rrf	___fladd@b+3,f
  7973  0EC7  0CC6               	rrf	___fladd@b+2,f
  7974  0EC8  0CC5               	rrf	___fladd@b+1,f
  7975  0EC9  0CC4               	rrf	___fladd@b,f
  7976  0ECA  0BCC               	decfsz	??___fladd& (0+127),f
  7977  0ECB  2EC5               	goto	u4845
  7978  0ECC                     l3766:	
  7979  0ECC  3001               	movlw	1
  7980  0ECD  00CC               	movwf	??___fladd
  7981  0ECE  084C               	movf	??___fladd,w
  7982  0ECF  07D6               	addwf	___fladd@bexp,f
  7983  0ED0  2F85               	goto	l3802
  7984  0ED1                     l3768:	
  7985  0ED1  0847               	movf	___fladd@b+3,w
  7986  0ED2  3A80               	xorlw	128
  7987  0ED3  00FF               	movwf	btemp+1
  7988  0ED4  084B               	movf	___fladd@a+3,w
  7989  0ED5  3A80               	xorlw	128
  7990  0ED6  027F               	subwf	btemp+1,w
  7991  0ED7  1D03               	skipz
  7992  0ED8  2EE3               	goto	u4853
  7993  0ED9  084A               	movf	___fladd@a+2,w
  7994  0EDA  0246               	subwf	___fladd@b+2,w
  7995  0EDB  1D03               	skipz
  7996  0EDC  2EE3               	goto	u4853
  7997  0EDD  0849               	movf	___fladd@a+1,w
  7998  0EDE  0245               	subwf	___fladd@b+1,w
  7999  0EDF  1D03               	skipz
  8000  0EE0  2EE3               	goto	u4853
  8001  0EE1  0848               	movf	___fladd@a,w
  8002  0EE2  0244               	subwf	___fladd@b,w
  8003  0EE3                     u4853:	
  8004  0EE3  1803               	skipnc
  8005  0EE4  2EE6               	goto	u4851
  8006  0EE5  2EE7               	goto	u4850
  8007  0EE6                     u4851:	
  8008  0EE6  2F3F               	goto	l3778
  8009  0EE7                     u4850:	
  8010  0EE7                     l3770:	
  8011  0EE7  30FF               	movlw	255
  8012  0EE8  00CC               	movwf	??___fladd
  8013  0EE9  30FF               	movlw	255
  8014  0EEA  00CD               	movwf	??___fladd+1
  8015  0EEB  30FF               	movlw	255
  8016  0EEC  00CE               	movwf	??___fladd+2
  8017  0EED  30FF               	movlw	255
  8018  0EEE  00CF               	movwf	??___fladd+3
  8019  0EEF  0848               	movf	___fladd@a,w
  8020  0EF0  00D0               	movwf	??___fladd+4
  8021  0EF1  0849               	movf	___fladd@a+1,w
  8022  0EF2  00D1               	movwf	??___fladd+5
  8023  0EF3  084A               	movf	___fladd@a+2,w
  8024  0EF4  00D2               	movwf	??___fladd+6
  8025  0EF5  084B               	movf	___fladd@a+3,w
  8026  0EF6  00D3               	movwf	??___fladd+7
  8027  0EF7  0844               	movf	___fladd@b,w
  8028  0EF8  02D0               	subwf	??___fladd+4,f
  8029  0EF9  0845               	movf	___fladd@b+1,w
  8030  0EFA  1C03               	skipc
  8031  0EFB  0F45               	incfsz	___fladd@b+1,w
  8032  0EFC  2EFE               	goto	u4861
  8033  0EFD  2EFF               	goto	u4862
  8034  0EFE                     u4861:	
  8035  0EFE  02D1               	subwf	??___fladd+5,f
  8036  0EFF                     u4862:	
  8037  0EFF  0846               	movf	___fladd@b+2,w
  8038  0F00  1C03               	skipc
  8039  0F01  0F46               	incfsz	___fladd@b+2,w
  8040  0F02  2F04               	goto	u4863
  8041  0F03  2F05               	goto	u4864
  8042  0F04                     u4863:	
  8043  0F04  02D2               	subwf	??___fladd+6,f
  8044  0F05                     u4864:	
  8045  0F05  0847               	movf	___fladd@b+3,w
  8046  0F06  1C03               	skipc
  8047  0F07  0F47               	incfsz	___fladd@b+3,w
  8048  0F08  2F0A               	goto	u4865
  8049  0F09  2F0B               	goto	u4866
  8050  0F0A                     u4865:	
  8051  0F0A  02D3               	subwf	??___fladd+7,f
  8052  0F0B                     u4866:	
  8053  0F0B  0850               	movf	??___fladd+4,w
  8054  0F0C  07CC               	addwf	??___fladd,f
  8055  0F0D  0851               	movf	??___fladd+5,w
  8056  0F0E  1803               	skipnc
  8057  0F0F  0F51               	incfsz	??___fladd+5,w
  8058  0F10  2F12               	goto	u4870
  8059  0F11  2F13               	goto	u4871
  8060  0F12                     u4870:	
  8061  0F12  07CD               	addwf	??___fladd+1,f
  8062  0F13                     u4871:	
  8063  0F13  0852               	movf	??___fladd+6,w
  8064  0F14  1803               	skipnc
  8065  0F15  0F52               	incfsz	??___fladd+6,w
  8066  0F16  2F18               	goto	u4872
  8067  0F17  2F19               	goto	u4873
  8068  0F18                     u4872:	
  8069  0F18  07CE               	addwf	??___fladd+2,f
  8070  0F19                     u4873:	
  8071  0F19  0853               	movf	??___fladd+7,w
  8072  0F1A  1803               	skipnc
  8073  0F1B  0A53               	incf	??___fladd+7,w
  8074  0F1C  07CF               	addwf	??___fladd+3,f
  8075  0F1D  084F               	movf	??___fladd+3,w
  8076  0F1E  00C7               	movwf	___fladd@b+3
  8077  0F1F  084E               	movf	??___fladd+2,w
  8078  0F20  00C6               	movwf	___fladd@b+2
  8079  0F21  084D               	movf	??___fladd+1,w
  8080  0F22  00C5               	movwf	___fladd@b+1
  8081  0F23  084C               	movf	??___fladd,w
  8082  0F24  00C4               	movwf	___fladd@b
  8083  0F25                     l3772:	
  8084  0F25  3080               	movlw	128
  8085  0F26  00CC               	movwf	??___fladd
  8086  0F27  084C               	movf	??___fladd,w
  8087  0F28  06D4               	xorwf	___fladd@signs,f
  8088  0F29  09D7               	comf	___fladd@grs,f
  8089  0F2A  0AD7               	incf	___fladd@grs,f
  8090  0F2B                     l3774:	
  8091  0F2B  0857               	movf	___fladd@grs,w
  8092  0F2C  1D03               	btfss	3,2
  8093  0F2D  2F2F               	goto	u4881
  8094  0F2E  2F30               	goto	u4880
  8095  0F2F                     u4881:	
  8096  0F2F  2F4D               	goto	l746
  8097  0F30                     u4880:	
  8098  0F30                     l3776:	
  8099  0F30  3001               	movlw	1
  8100  0F31  07C4               	addwf	___fladd@b,f
  8101  0F32  3000               	movlw	0
  8102  0F33  1803               	skipnc
  8103  0F34  3001               	movlw	1
  8104  0F35  07C5               	addwf	___fladd@b+1,f
  8105  0F36  3000               	movlw	0
  8106  0F37  1803               	skipnc
  8107  0F38  3001               	movlw	1
  8108  0F39  07C6               	addwf	___fladd@b+2,f
  8109  0F3A  3000               	movlw	0
  8110  0F3B  1803               	skipnc
  8111  0F3C  3001               	movlw	1
  8112  0F3D  07C7               	addwf	___fladd@b+3,f
  8113  0F3E  2F4D               	goto	l746
  8114  0F3F                     l3778:	
  8115  0F3F  0848               	movf	___fladd@a,w
  8116  0F40  02C4               	subwf	___fladd@b,f
  8117  0F41  0849               	movf	___fladd@a+1,w
  8118  0F42  1C03               	skipc
  8119  0F43  0F49               	incfsz	___fladd@a+1,w
  8120  0F44  02C5               	subwf	___fladd@b+1,f
  8121  0F45  084A               	movf	___fladd@a+2,w
  8122  0F46  1C03               	skipc
  8123  0F47  0F4A               	incfsz	___fladd@a+2,w
  8124  0F48  02C6               	subwf	___fladd@b+2,f
  8125  0F49  084B               	movf	___fladd@a+3,w
  8126  0F4A  1C03               	skipc
  8127  0F4B  0F4B               	incfsz	___fladd@a+3,w
  8128  0F4C  02C7               	subwf	___fladd@b+3,f
  8129  0F4D                     l746:	
  8130  0F4D  0847               	movf	___fladd@b+3,w
  8131  0F4E  0446               	iorwf	___fladd@b+2,w
  8132  0F4F  0445               	iorwf	___fladd@b+1,w
  8133  0F50  0444               	iorwf	___fladd@b,w
  8134  0F51  1D03               	skipz
  8135  0F52  2F54               	goto	u4891
  8136  0F53  2F55               	goto	u4890
  8137  0F54                     u4891:	
  8138  0F54  2F81               	goto	l3800
  8139  0F55                     u4890:	
  8140  0F55                     l3780:	
  8141  0F55  0857               	movf	___fladd@grs,w
  8142  0F56  1D03               	btfss	3,2
  8143  0F57  2F59               	goto	u4901
  8144  0F58  2F5A               	goto	u4900
  8145  0F59                     u4901:	
  8146  0F59  2F81               	goto	l3800
  8147  0F5A                     u4900:	
  8148  0F5A                     l3782:	
  8149  0F5A  3000               	movlw	0
  8150  0F5B  00C7               	movwf	?___fladd+3
  8151  0F5C  3000               	movlw	0
  8152  0F5D  00C6               	movwf	?___fladd+2
  8153  0F5E  3000               	movlw	0
  8154  0F5F  00C5               	movwf	?___fladd+1
  8155  0F60  3000               	movlw	0
  8156  0F61  00C4               	movwf	?___fladd
  8157  0F62  2FFF               	goto	l738
  8158  0F63                     l3786:	
  8159  0F63  3001               	movlw	1
  8160  0F64  00CC               	movwf	??___fladd
  8161  0F65                     u4915:	
  8162  0F65  1003               	clrc
  8163  0F66  0DC4               	rlf	___fladd@b,f
  8164  0F67  0DC5               	rlf	___fladd@b+1,f
  8165  0F68  0DC6               	rlf	___fladd@b+2,f
  8166  0F69  0DC7               	rlf	___fladd@b+3,f
  8167  0F6A  0BCC               	decfsz	??___fladd,f
  8168  0F6B  2F65               	goto	u4915
  8169  0F6C                     l3788:	
  8170  0F6C  1FD7               	btfss	___fladd@grs,7
  8171  0F6D  2F6F               	goto	u4921
  8172  0F6E  2F70               	goto	u4920
  8173  0F6F                     u4921:	
  8174  0F6F  2F71               	goto	l750
  8175  0F70                     u4920:	
  8176  0F70                     l3790:	
  8177  0F70  1444               	bsf	___fladd@b,0
  8178  0F71                     l750:	
  8179  0F71  1C57               	btfss	___fladd@grs,0
  8180  0F72  2F74               	goto	u4931
  8181  0F73  2F75               	goto	u4930
  8182  0F74                     u4931:	
  8183  0F74  2F78               	goto	l3794
  8184  0F75                     u4930:	
  8185  0F75                     l3792:	
  8186  0F75  1403               	setc
  8187  0F76  0DD7               	rlf	___fladd@grs,f
  8188  0F77  2F7A               	goto	l3796
  8189  0F78                     l3794:	
  8190  0F78  1003               	clrc
  8191  0F79  0DD7               	rlf	___fladd@grs,f
  8192  0F7A                     l3796:	
  8193  0F7A  0856               	movf	___fladd@bexp,w
  8194  0F7B  1903               	btfsc	3,2
  8195  0F7C  2F7E               	goto	u4941
  8196  0F7D  2F7F               	goto	u4940
  8197  0F7E                     u4941:	
  8198  0F7E  2F81               	goto	l3800
  8199  0F7F                     u4940:	
  8200  0F7F                     l3798:	
  8201  0F7F  3001               	movlw	1
  8202  0F80  02D6               	subwf	___fladd@bexp,f
  8203  0F81                     l3800:	
  8204  0F81  1FC6               	btfss	___fladd@b+2,7
  8205  0F82  2F84               	goto	u4951
  8206  0F83  2F85               	goto	u4950
  8207  0F84                     u4951:	
  8208  0F84  2F63               	goto	l3786
  8209  0F85                     u4950:	
  8210  0F85                     l3802:	
  8211  0F85  01D5               	clrf	___fladd@aexp
  8212  0F86                     l3804:	
  8213  0F86  1FD7               	btfss	___fladd@grs,7
  8214  0F87  2F89               	goto	u4961
  8215  0F88  2F8A               	goto	u4960
  8216  0F89                     u4961:	
  8217  0F89  2F98               	goto	l3812
  8218  0F8A                     u4960:	
  8219  0F8A                     l3806:	
  8220  0F8A  0857               	movf	___fladd@grs,w
  8221  0F8B  397F               	andlw	127
  8222  0F8C  1903               	btfsc	3,2
  8223  0F8D  2F8F               	goto	u4971
  8224  0F8E  2F90               	goto	u4970
  8225  0F8F                     u4971:	
  8226  0F8F  2F93               	goto	l756
  8227  0F90                     u4970:	
  8228  0F90                     l3808:	
  8229  0F90  01D5               	clrf	___fladd@aexp
  8230  0F91  0AD5               	incf	___fladd@aexp,f
  8231  0F92  2F98               	goto	l3812
  8232  0F93                     l756:	
  8233  0F93  1C44               	btfss	___fladd@b,0
  8234  0F94  2F96               	goto	u4981
  8235  0F95  2F97               	goto	u4980
  8236  0F96                     u4981:	
  8237  0F96  2F98               	goto	l3812
  8238  0F97                     u4980:	
  8239  0F97  2F90               	goto	l3808
  8240  0F98                     l3812:	
  8241  0F98  0855               	movf	___fladd@aexp,w
  8242  0F99  1903               	btfsc	3,2
  8243  0F9A  2F9C               	goto	u4991
  8244  0F9B  2F9D               	goto	u4990
  8245  0F9C                     u4991:	
  8246  0F9C  2FD1               	goto	l759
  8247  0F9D                     u4990:	
  8248  0F9D                     l3814:	
  8249  0F9D  3001               	movlw	1
  8250  0F9E  07C4               	addwf	___fladd@b,f
  8251  0F9F  3000               	movlw	0
  8252  0FA0  1803               	skipnc
  8253  0FA1  3001               	movlw	1
  8254  0FA2  07C5               	addwf	___fladd@b+1,f
  8255  0FA3  3000               	movlw	0
  8256  0FA4  1803               	skipnc
  8257  0FA5  3001               	movlw	1
  8258  0FA6  07C6               	addwf	___fladd@b+2,f
  8259  0FA7  3000               	movlw	0
  8260  0FA8  1803               	skipnc
  8261  0FA9  3001               	movlw	1
  8262  0FAA  07C7               	addwf	___fladd@b+3,f
  8263  0FAB                     l3816:	
  8264  0FAB  1C47               	btfss	___fladd@b+3,0
  8265  0FAC  2FAE               	goto	u5001
  8266  0FAD  2FAF               	goto	u5000
  8267  0FAE                     u5001:	
  8268  0FAE  2FD1               	goto	l759
  8269  0FAF                     u5000:	
  8270  0FAF                     l3818:	
  8271  0FAF  0844               	movf	___fladd@b,w
  8272  0FB0  00CC               	movwf	??___fladd
  8273  0FB1  0845               	movf	___fladd@b+1,w
  8274  0FB2  00CD               	movwf	??___fladd+1
  8275  0FB3  0846               	movf	___fladd@b+2,w
  8276  0FB4  00CE               	movwf	??___fladd+2
  8277  0FB5  0847               	movf	___fladd@b+3,w
  8278  0FB6  00CF               	movwf	??___fladd+3
  8279  0FB7  3001               	movlw	1
  8280  0FB8  00D0               	movwf	??___fladd+4
  8281  0FB9                     u5015:	
  8282  0FB9  0D4F               	rlf	??___fladd+3,w
  8283  0FBA  0CCF               	rrf	??___fladd+3,f
  8284  0FBB  0CCE               	rrf	??___fladd+2,f
  8285  0FBC  0CCD               	rrf	??___fladd+1,f
  8286  0FBD  0CCC               	rrf	??___fladd,f
  8287  0FBE                     u5010:	
  8288  0FBE  0BD0               	decfsz	??___fladd+4,f
  8289  0FBF  2FB9               	goto	u5015
  8290  0FC0  084F               	movf	??___fladd+3,w
  8291  0FC1  00C7               	movwf	___fladd@b+3
  8292  0FC2  084E               	movf	??___fladd+2,w
  8293  0FC3  00C6               	movwf	___fladd@b+2
  8294  0FC4  084D               	movf	??___fladd+1,w
  8295  0FC5  00C5               	movwf	___fladd@b+1
  8296  0FC6  084C               	movf	??___fladd,w
  8297  0FC7  00C4               	movwf	___fladd@b
  8298  0FC8  0A56               	incf	___fladd@bexp,w
  8299  0FC9  1903               	btfsc	3,2
  8300  0FCA  2FCC               	goto	u5021
  8301  0FCB  2FCD               	goto	u5020
  8302  0FCC                     u5021:	
  8303  0FCC  2FD1               	goto	l759
  8304  0FCD                     u5020:	
  8305  0FCD                     l3820:	
  8306  0FCD  3001               	movlw	1
  8307  0FCE  00CC               	movwf	??___fladd
  8308  0FCF  084C               	movf	??___fladd,w
  8309  0FD0  07D6               	addwf	___fladd@bexp,f
  8310  0FD1                     l759:	
  8311  0FD1  0A56               	incf	___fladd@bexp,w
  8312  0FD2  1903               	btfsc	3,2
  8313  0FD3  2FD5               	goto	u5031
  8314  0FD4  2FD6               	goto	u5030
  8315  0FD5                     u5031:	
  8316  0FD5  2FDB               	goto	l3824
  8317  0FD6                     u5030:	
  8318  0FD6                     l3822:	
  8319  0FD6  0856               	movf	___fladd@bexp,w
  8320  0FD7  1D03               	btfss	3,2
  8321  0FD8  2FDA               	goto	u5041
  8322  0FD9  2FDB               	goto	u5040
  8323  0FDA                     u5041:	
  8324  0FDA  2FE9               	goto	l3830
  8325  0FDB                     u5040:	
  8326  0FDB                     l3824:	
  8327  0FDB  3000               	movlw	0
  8328  0FDC  00C7               	movwf	___fladd@b+3
  8329  0FDD  3000               	movlw	0
  8330  0FDE  00C6               	movwf	___fladd@b+2
  8331  0FDF  3000               	movlw	0
  8332  0FE0  00C5               	movwf	___fladd@b+1
  8333  0FE1  3000               	movlw	0
  8334  0FE2  00C4               	movwf	___fladd@b
  8335  0FE3                     l3826:	
  8336  0FE3  0856               	movf	___fladd@bexp,w
  8337  0FE4  1D03               	btfss	3,2
  8338  0FE5  2FE7               	goto	u5051
  8339  0FE6  2FE8               	goto	u5050
  8340  0FE7                     u5051:	
  8341  0FE7  2FE9               	goto	l3830
  8342  0FE8                     u5050:	
  8343  0FE8                     l3828:	
  8344  0FE8  01D4               	clrf	___fladd@signs
  8345  0FE9                     l3830:	
  8346  0FE9  1C56               	btfss	___fladd@bexp,0
  8347  0FEA  2FEC               	goto	u5061
  8348  0FEB  2FED               	goto	u5060
  8349  0FEC                     u5061:	
  8350  0FEC  2FEF               	goto	l3834
  8351  0FED                     u5060:	
  8352  0FED                     l3832:	
  8353  0FED  17C6               	bsf	___fladd@b+2,7
  8354  0FEE  2FF3               	goto	l767
  8355  0FEF                     l3834:	
  8356  0FEF  307F               	movlw	127
  8357  0FF0  00CC               	movwf	??___fladd
  8358  0FF1  084C               	movf	??___fladd,w
  8359  0FF2  05C6               	andwf	___fladd@b+2,f
  8360  0FF3                     l767:	
  8361  0FF3  0856               	movf	___fladd@bexp,w
  8362  0FF4  00CC               	movwf	??___fladd
  8363  0FF5  1003               	clrc
  8364  0FF6  0C4C               	rrf	??___fladd,w
  8365  0FF7  00CD               	movwf	??___fladd+1
  8366  0FF8  084D               	movf	??___fladd+1,w
  8367  0FF9  00C7               	movwf	___fladd@b+3
  8368  0FFA                     l3836:	
  8369  0FFA  1FD4               	btfss	___fladd@signs,7
  8370  0FFB  2FFD               	goto	u5071
  8371  0FFC  2FFE               	goto	u5070
  8372  0FFD                     u5071:	
  8373  0FFD  2FFF               	goto	l768
  8374  0FFE                     u5070:	
  8375  0FFE                     l3838:	
  8376  0FFE  17C7               	bsf	___fladd@b+3,7
  8377  0FFF                     l768:	
  8378  0FFF                     l738:	
  8379  0FFF  0008               	return
  8380  1000                     __end_of___fladd:	
  8381                           
  8382                           	psect	text28
  8383  1727                     __ptext28:	
  8384 ;; *************** function _ADC_LCD *****************
  8385 ;; Defined at:
  8386 ;;		line 187 in file "./LCD.c"
  8387 ;; Parameters:    Size  Location     Type
  8388 ;;  ptrTemp         1    wreg     PTR unsigned char 
  8389 ;;		 -> Temp(5), 
  8390 ;; Auto vars:     Size  Location     Type
  8391 ;;  ptrTemp         1    0[BANK0 ] PTR unsigned char 
  8392 ;;		 -> Temp(5), 
  8393 ;;  i               1    1[BANK0 ] unsigned char 
  8394 ;; Return value:  Size  Location     Type
  8395 ;;                  1    wreg      void 
  8396 ;; Registers used:
  8397 ;;		wreg, fsr0l, fsr0h, status,2, status,0, pclath, cstack
  8398 ;; Tracked objects:
  8399 ;;		On entry : 0/0
  8400 ;;		On exit  : 0/0
  8401 ;;		Unchanged: 0/0
  8402 ;; Data sizes:     COMMON   BANK0   BANK1   BANK3   BANK2
  8403 ;;      Params:         0       0       0       0       0
  8404 ;;      Locals:         0       2       0       0       0
  8405 ;;      Temps:          3       0       0       0       0
  8406 ;;      Totals:         3       2       0       0       0
  8407 ;;Total ram usage:        5 bytes
  8408 ;; Hardware stack levels used:    1
  8409 ;; Hardware stack levels required when called:    2
  8410 ;; This function calls:
  8411 ;;		_send_a_character
  8412 ;;		_send_a_command
  8413 ;; This function is called by:
  8414 ;;		_main
  8415 ;; This function uses a non-reentrant model
  8416 ;;
  8417                           
  8418                           
  8419                           ;psect for function _ADC_LCD
  8420  1727                     _ADC_LCD:	
  8421                           
  8422                           ;incstack = 0
  8423                           ; Regs used in _ADC_LCD: [wreg-fsr0h+status,2+status,0+pclath+cstack]
  8424                           ;ADC_LCD@ptrTemp stored from wreg
  8425  1727  1283               	bcf	3,5	;RP0=0, select bank0
  8426  1728  1303               	bcf	3,6	;RP1=0, select bank0
  8427  1729  00A0               	movwf	ADC_LCD@ptrTemp
  8428  172A                     l4148:	
  8429  172A                     l4150:	
  8430                           
  8431                           ;./LCD.c: 189:     static unsigned char firsttime=2;;./LCD.c: 192:     if(firsttime==2){
  8432  172A  3002               	movlw	2
  8433  172B  0679               	xorwf	ADC_LCD@firsttime,w
  8434  172C  1D03               	btfss	3,2
  8435  172D  2F2F               	goto	u5761
  8436  172E  2F30               	goto	u5760
  8437  172F                     u5761:	
  8438  172F  2F42               	goto	l4160
  8439  1730                     u5760:	
  8440  1730                     l4152:	
  8441                           
  8442                           ;./LCD.c: 193:     TRISD &=0x00;
  8443  1730  1683               	bsf	3,5	;RP0=1, select bank1
  8444  1731  1303               	bcf	3,6	;RP1=0, select bank1
  8445  1732  0188               	clrf	8	;volatile
  8446  1733                     l4154:	
  8447                           
  8448                           ;./LCD.c: 194:     TRISE1 &=0;
  8449  1733  1089               	bcf	9,1	;volatile
  8450  1734                     l4156:	
  8451                           
  8452                           ;./LCD.c: 195:     TRISE2 &=0;
  8453  1734  1109               	bcf	9,2	;volatile
  8454  1735                     l4158:	
  8455                           
  8456                           ;./LCD.c: 196:         _delay((unsigned long)((70)*(16000000UL/4000.0)));
  8457  1735  3002               	movlw	2
  8458  1736  00F7               	movwf	??_ADC_LCD+2
  8459  1737  306C               	movlw	108
  8460  1738  00F6               	movwf	??_ADC_LCD+1
  8461  1739  309F               	movlw	159
  8462  173A  00F5               	movwf	??_ADC_LCD
  8463  173B                     u6517:	
  8464  173B  0BF5               	decfsz	??_ADC_LCD,f
  8465  173C  2F3B               	goto	u6517
  8466  173D  0BF6               	decfsz	??_ADC_LCD+1,f
  8467  173E  2F3B               	goto	u6517
  8468  173F  0BF7               	decfsz	??_ADC_LCD+2,f
  8469  1740  2F3B               	goto	u6517
  8470  1741  2F42               	nop2
  8471  1742                     l4160:	
  8472                           
  8473                           ;./LCD.c: 198:     send_a_command(0xC0);
  8474  1742  30C0               	movlw	192
  8475  1743  160A  118A  23E3  160A  118A  	fcall	_send_a_command
  8476  1748                     l4162:	
  8477                           
  8478                           ;./LCD.c: 199:     send_a_command(0x0C);
  8479  1748  300C               	movlw	12
  8480  1749  160A  118A  23E3  160A  118A  	fcall	_send_a_command
  8481  174E                     l4164:	
  8482                           
  8483                           ;./LCD.c: 201:     for (i=0; (i<(3+firsttime)) && (*(ptrTemp+i)!='\0');i++){
  8484  174E  1283               	bcf	3,5	;RP0=0, select bank0
  8485  174F  1303               	bcf	3,6	;RP1=0, select bank0
  8486  1750  01A1               	clrf	ADC_LCD@i
  8487  1751  2F63               	goto	l4170
  8488  1752                     l4166:	
  8489                           
  8490                           ;./LCD.c: 203:         send_a_character(ptrTemp[i]);
  8491  1752  0821               	movf	ADC_LCD@i,w
  8492  1753  0720               	addwf	ADC_LCD@ptrTemp,w
  8493  1754  00F5               	movwf	??_ADC_LCD
  8494  1755  0875               	movf	??_ADC_LCD,w
  8495  1756  0084               	movwf	4
  8496  1757  0800               	movf	0,w
  8497  1758  160A  118A  23F8  160A  118A  	fcall	_send_a_character
  8498  175D                     l4168:	
  8499                           
  8500                           ;./LCD.c: 205:     }
  8501  175D  3001               	movlw	1
  8502  175E  00F5               	movwf	??_ADC_LCD
  8503  175F  0875               	movf	??_ADC_LCD,w
  8504  1760  1283               	bcf	3,5	;RP0=0, select bank0
  8505  1761  1303               	bcf	3,6	;RP1=0, select bank0
  8506  1762  07A1               	addwf	ADC_LCD@i,f
  8507  1763                     l4170:	
  8508  1763  0879               	movf	ADC_LCD@firsttime,w
  8509  1764  3E03               	addlw	3
  8510  1765  00F5               	movwf	??_ADC_LCD
  8511  1766  3000               	movlw	0
  8512  1767  1803               	skipnc
  8513  1768  3001               	movlw	1
  8514  1769  00F6               	movwf	??_ADC_LCD+1
  8515  176A  0876               	movf	??_ADC_LCD+1,w
  8516  176B  3A80               	xorlw	128
  8517  176C  3C80               	sublw	128
  8518  176D  1D03               	skipz
  8519  176E  2F71               	goto	u5775
  8520  176F  0875               	movf	??_ADC_LCD,w
  8521  1770  0221               	subwf	ADC_LCD@i,w
  8522  1771                     u5775:	
  8523  1771  1803               	skipnc
  8524  1772  2F74               	goto	u5771
  8525  1773  2F75               	goto	u5770
  8526  1774                     u5771:	
  8527  1774  2F82               	goto	l4174
  8528  1775                     u5770:	
  8529  1775                     l4172:	
  8530  1775  1283               	bcf	3,5	;RP0=0, select bank0
  8531  1776  1303               	bcf	3,6	;RP1=0, select bank0
  8532  1777  0821               	movf	ADC_LCD@i,w
  8533  1778  0720               	addwf	ADC_LCD@ptrTemp,w
  8534  1779  00F5               	movwf	??_ADC_LCD
  8535  177A  0875               	movf	??_ADC_LCD,w
  8536  177B  0084               	movwf	4
  8537  177C  1383               	bcf	3,7	;select IRP bank0
  8538  177D  0800               	movf	0,w
  8539  177E  1D03               	btfss	3,2
  8540  177F  2F81               	goto	u5781
  8541  1780  2F82               	goto	u5780
  8542  1781                     u5781:	
  8543  1781  2F52               	goto	l4166
  8544  1782                     u5780:	
  8545  1782                     l4174:	
  8546                           
  8547                           ;./LCD.c: 206:        firsttime=0;
  8548  1782  01F9               	clrf	ADC_LCD@firsttime
  8549  1783                     l159:	
  8550  1783  0008               	return
  8551  1784                     __end_of_ADC_LCD:	
  8552                           
  8553                           	psect	text29
  8554  13E3                     __ptext29:	
  8555 ;; *************** function _send_a_command *****************
  8556 ;; Defined at:
  8557 ;;		line 15 in file "./LCD.c"
  8558 ;; Parameters:    Size  Location     Type
  8559 ;;  command         1    wreg     unsigned char 
  8560 ;; Auto vars:     Size  Location     Type
  8561 ;;  command         1    4[COMMON] unsigned char 
  8562 ;; Return value:  Size  Location     Type
  8563 ;;                  1    wreg      void 
  8564 ;; Registers used:
  8565 ;;		wreg, status,2
  8566 ;; Tracked objects:
  8567 ;;		On entry : 0/0
  8568 ;;		On exit  : 0/0
  8569 ;;		Unchanged: 0/0
  8570 ;; Data sizes:     COMMON   BANK0   BANK1   BANK3   BANK2
  8571 ;;      Params:         0       0       0       0       0
  8572 ;;      Locals:         1       0       0       0       0
  8573 ;;      Temps:          2       0       0       0       0
  8574 ;;      Totals:         3       0       0       0       0
  8575 ;;Total ram usage:        3 bytes
  8576 ;; Hardware stack levels used:    1
  8577 ;; Hardware stack levels required when called:    1
  8578 ;; This function calls:
  8579 ;;		Nothing
  8580 ;; This function is called by:
  8581 ;;		_Move_Cursor_R
  8582 ;;		_Move_Cursor_L
  8583 ;;		_Move_Cursor_To
  8584 ;;		_LCD_Start
  8585 ;;		_lcd_init
  8586 ;;		_SETTIME_LCD
  8587 ;;		_SETHEAT_LCD
  8588 ;;		_ADC_LCD
  8589 ;;		_PrintLINE1
  8590 ;;		_PrintLINE2
  8591 ;;		_ONStatus
  8592 ;;		_main
  8593 ;; This function uses a non-reentrant model
  8594 ;;
  8595                           
  8596                           
  8597                           ;psect for function _send_a_command
  8598  13E3                     _send_a_command:	
  8599                           
  8600                           ;incstack = 0
  8601                           ; Regs used in _send_a_command: [wreg+status,2]
  8602                           ;send_a_command@command stored from wreg
  8603  13E3  00F4               	movwf	send_a_command@command
  8604  13E4                     l3374:	
  8605                           
  8606                           ;./LCD.c: 15: void send_a_command (unsigned char command);./LCD.c: 16: {;./LCD.c: 17:   
      +                            PORTD=command;
  8607  13E4  0874               	movf	send_a_command@command,w
  8608  13E5  1283               	bcf	3,5	;RP0=0, select bank0
  8609  13E6  1303               	bcf	3,6	;RP1=0, select bank0
  8610  13E7  0088               	movwf	8	;volatile
  8611  13E8                     l3376:	
  8612                           
  8613                           ;./LCD.c: 18:     PORTEbits.RE2 = 0;
  8614  13E8  1109               	bcf	9,2	;volatile
  8615  13E9                     l3378:	
  8616                           
  8617                           ;./LCD.c: 19:     PORTEbits.RE1 = 1;
  8618  13E9  1489               	bsf	9,1	;volatile
  8619                           
  8620                           ;./LCD.c: 20:     _delay((unsigned long)((10)*(16000000UL/4000.0)));
  8621  13EA  3034               	movlw	52
  8622  13EB  00F3               	movwf	??_send_a_command+1
  8623  13EC  30F1               	movlw	241
  8624  13ED  00F2               	movwf	??_send_a_command
  8625  13EE                     u6527:	
  8626  13EE  0BF2               	decfsz	??_send_a_command,f
  8627  13EF  2BEE               	goto	u6527
  8628  13F0  0BF3               	decfsz	??_send_a_command+1,f
  8629  13F1  2BEE               	goto	u6527
  8630  13F2  2BF3               	nop2
  8631  13F3                     l3380:	
  8632                           
  8633                           ;./LCD.c: 21:     PORTEbits.RE1 = 0;
  8634  13F3  1283               	bcf	3,5	;RP0=0, select bank0
  8635  13F4  1303               	bcf	3,6	;RP1=0, select bank0
  8636  13F5  1089               	bcf	9,1	;volatile
  8637  13F6                     l3382:	
  8638                           
  8639                           ;./LCD.c: 22:     PORTD &=0;
  8640  13F6  0188               	clrf	8	;volatile
  8641  13F7                     l77:	
  8642  13F7  0008               	return
  8643  13F8                     __end_of_send_a_command:	
  8644                           
  8645                           	psect	text30
  8646  13F8                     __ptext30:	
  8647 ;; *************** function _send_a_character *****************
  8648 ;; Defined at:
  8649 ;;		line 25 in file "./LCD.c"
  8650 ;; Parameters:    Size  Location     Type
  8651 ;;  character       1    wreg     unsigned char 
  8652 ;; Auto vars:     Size  Location     Type
  8653 ;;  character       1    4[COMMON] unsigned char 
  8654 ;; Return value:  Size  Location     Type
  8655 ;;                  1    wreg      void 
  8656 ;; Registers used:
  8657 ;;		wreg, status,2
  8658 ;; Tracked objects:
  8659 ;;		On entry : 0/0
  8660 ;;		On exit  : 0/0
  8661 ;;		Unchanged: 0/0
  8662 ;; Data sizes:     COMMON   BANK0   BANK1   BANK3   BANK2
  8663 ;;      Params:         0       0       0       0       0
  8664 ;;      Locals:         1       0       0       0       0
  8665 ;;      Temps:          2       0       0       0       0
  8666 ;;      Totals:         3       0       0       0       0
  8667 ;;Total ram usage:        3 bytes
  8668 ;; Hardware stack levels used:    1
  8669 ;; Hardware stack levels required when called:    1
  8670 ;; This function calls:
  8671 ;;		Nothing
  8672 ;; This function is called by:
  8673 ;;		_LCD_Start
  8674 ;;		_LCD_Print_Hex
  8675 ;;		_SETTIME_LCD
  8676 ;;		_SETHEAT_LCD
  8677 ;;		_ADC_LCD
  8678 ;;		_PrintLINE1
  8679 ;;		_PrintLINE2
  8680 ;;		_ONStatus
  8681 ;; This function uses a non-reentrant model
  8682 ;;
  8683                           
  8684                           
  8685                           ;psect for function _send_a_character
  8686  13F8                     _send_a_character:	
  8687                           
  8688                           ;incstack = 0
  8689                           ; Regs used in _send_a_character: [wreg+status,2]
  8690                           ;send_a_character@character stored from wreg
  8691  13F8  00F4               	movwf	send_a_character@character
  8692  13F9                     l3384:	
  8693                           
  8694                           ;./LCD.c: 25: void send_a_character (unsigned char character);./LCD.c: 26: {;./LCD.c: 27
      +                          :     PORTD=character;
  8695  13F9  0874               	movf	send_a_character@character,w
  8696  13FA  1283               	bcf	3,5	;RP0=0, select bank0
  8697  13FB  1303               	bcf	3,6	;RP1=0, select bank0
  8698  13FC  0088               	movwf	8	;volatile
  8699  13FD                     l3386:	
  8700                           
  8701                           ;./LCD.c: 28:     PORTEbits.RE1 = 1;
  8702  13FD  1489               	bsf	9,1	;volatile
  8703  13FE                     l3388:	
  8704                           
  8705                           ;./LCD.c: 29:     PORTEbits.RE2 = 1;
  8706  13FE  1509               	bsf	9,2	;volatile
  8707                           
  8708                           ;./LCD.c: 30:     _delay((unsigned long)((10)*(16000000UL/4000.0)));
  8709  13FF  3034               	movlw	52
  8710  1400  00F3               	movwf	??_send_a_character+1
  8711  1401  30F1               	movlw	241
  8712  1402  00F2               	movwf	??_send_a_character
  8713  1403                     u6537:	
  8714  1403  0BF2               	decfsz	??_send_a_character,f
  8715  1404  2C03               	goto	u6537
  8716  1405  0BF3               	decfsz	??_send_a_character+1,f
  8717  1406  2C03               	goto	u6537
  8718  1407  2C08               	nop2
  8719  1408                     l3390:	
  8720                           
  8721                           ;./LCD.c: 31:     PORTEbits.RE1 = 0;
  8722  1408  1283               	bcf	3,5	;RP0=0, select bank0
  8723  1409  1303               	bcf	3,6	;RP1=0, select bank0
  8724  140A  1089               	bcf	9,1	;volatile
  8725  140B                     l3392:	
  8726                           
  8727                           ;./LCD.c: 32:     PORTEbits.RE2 = 0;
  8728  140B  1109               	bcf	9,2	;volatile
  8729  140C                     l3394:	
  8730                           
  8731                           ;./LCD.c: 33:     PORTD &=0;
  8732  140C  0188               	clrf	8	;volatile
  8733  140D                     l80:	
  8734  140D  0008               	return
  8735  140E                     __end_of_send_a_character:	
  8736                           
  8737                           	psect	text31
  8738  13CF                     __ptext31:	
  8739 ;; *************** function _ISR_H *****************
  8740 ;; Defined at:
  8741 ;;		line 210 in file "Project Main.c"
  8742 ;; Parameters:    Size  Location     Type
  8743 ;;		None
  8744 ;; Auto vars:     Size  Location     Type
  8745 ;;		None
  8746 ;; Return value:  Size  Location     Type
  8747 ;;                  1    wreg      void 
  8748 ;; Registers used:
  8749 ;;		wreg
  8750 ;; Tracked objects:
  8751 ;;		On entry : 0/0
  8752 ;;		On exit  : 0/0
  8753 ;;		Unchanged: 0/0
  8754 ;; Data sizes:     COMMON   BANK0   BANK1   BANK3   BANK2
  8755 ;;      Params:         0       0       0       0       0
  8756 ;;      Locals:         0       0       0       0       0
  8757 ;;      Temps:          2       0       0       0       0
  8758 ;;      Totals:         2       0       0       0       0
  8759 ;;Total ram usage:        2 bytes
  8760 ;; Hardware stack levels used:    1
  8761 ;; This function calls:
  8762 ;;		Nothing
  8763 ;; This function is called by:
  8764 ;;		Interrupt level 1
  8765 ;; This function uses a non-reentrant model
  8766 ;;
  8767                           
  8768                           
  8769                           ;psect for function _ISR_H
  8770  13CF                     _ISR_H:	
  8771  13CF                     i1l3366:	
  8772                           
  8773                           ;Project Main.c: 212:     if(TMR1IF==1)
  8774  13CF  1283               	bcf	3,5	;RP0=0, select bank0
  8775  13D0  1303               	bcf	3,6	;RP1=0, select bank0
  8776  13D1  1C0C               	btfss	12,0	;volatile
  8777  13D2  2BD4               	goto	u425_21
  8778  13D3  2BD5               	goto	u425_20
  8779  13D4                     u425_21:	
  8780  13D4  2BDC               	goto	i1l346
  8781  13D5                     u425_20:	
  8782  13D5                     i1l3368:	
  8783                           
  8784                           ;Project Main.c: 213:     {;Project Main.c: 214:         TMR1Counter=1;
  8785  13D5  01EF               	clrf	_TMR1Counter
  8786  13D6  0AEF               	incf	_TMR1Counter,f
  8787  13D7                     i1l3370:	
  8788                           
  8789                           ;Project Main.c: 215:         TMR1H=0x8A;
  8790  13D7  308A               	movlw	138
  8791  13D8  008F               	movwf	15	;volatile
  8792                           
  8793                           ;Project Main.c: 216:         TMR1L=0xD0;
  8794  13D9  30D0               	movlw	208
  8795  13DA  008E               	movwf	14	;volatile
  8796  13DB                     i1l3372:	
  8797                           
  8798                           ;Project Main.c: 217:         TMR1IF=0;
  8799  13DB  100C               	bcf	12,0	;volatile
  8800  13DC                     i1l346:	
  8801  13DC  0871               	movf	??_ISR_H+1,w
  8802  13DD  008A               	movwf	10
  8803  13DE  0E70               	swapf	??_ISR_H^(0+4294967168),w
  8804  13DF  0083               	movwf	3
  8805  13E0  0EFE               	swapf	btemp,f
  8806  13E1  0E7E               	swapf	btemp,w
  8807  13E2  0009               	retfie
  8808  13E3                     __end_of_ISR_H:	
  8809  007E                     btemp	set	126	;btemp
  8810  007E                     wtemp0	set	126
  8811                           
  8812                           	psect	intentry
  8813  0004                     __pintentry:	
  8814                           ;incstack = 0
  8815                           ; Regs used in _ISR_H: [wreg]
  8816                           
  8817  0004                     interrupt_function:	
  8818  007E                     saved_w	set	btemp
  8819  0004  00FE               	movwf	btemp
  8820  0005  0E03               	swapf	3,w
  8821  0006  00F0               	movwf	??_ISR_H
  8822  0007  080A               	movf	10,w
  8823  0008  00F1               	movwf	??_ISR_H+1
  8824  0009  160A  118A  2BCF   	ljmp	_ISR_H


Data Sizes:
    Strings     105
    Constant    0
    Data        78
    BSS         14
    Persistent  0
    Stack       0

Auto Spaces:
    Space          Size  Autos    Used
    COMMON           14      9      12
    BANK0            80     72      80
    BANK1            80     15      80
    BANK3            96      0      16
    BANK2            96      0       0

Pointer List with Targets:

    ONStatus@ptrTemp	PTR unsigned char  size(1) Largest target is 5
		 -> Temp(BANK1[5]), 

    ADC_Read@Temp	PTR unsigned char  size(1) Largest target is 5
		 -> Temp(BANK1[5]), 

    PrintLINE2@ptrSTR	PTR unsigned char  size(1) Largest target is 15
		 -> STR_9(CODE[15]), STR_7(CODE[15]), STR_5(CODE[10]), STR_3(CODE[5]), 

    PrintLINE1@ptrSTR	PTR unsigned char  size(1) Largest target is 14
		 -> STR_8(CODE[14]), STR_6(CODE[14]), STR_4(CODE[10]), STR_2(CODE[12]), 
		 -> STR_1(CODE[10]), 

    ADC_LCD@ptrTemp	PTR unsigned char  size(1) Largest target is 5
		 -> Temp(BANK1[5]), 


Critical Paths under _main in COMMON

    _main->_LCD_Start
    _main->_Move_Cursor_To
    _main->_SETHEAT_LCD
    _SETTIME_LCD->_Move_Cursor_R
    _SETHEAT_LCD->_send_a_character
    _SETHEAT_LCD->_send_a_command
    _ONStatus->_MDONE
    _ONStatus->_Move_Cursor_To
    _ONStatus->___lwmod
    _PAUSED->_PrintLINE1
    _PAUSED->_PrintLINE2
    _Move_Cursor_To->_send_a_command
    _Move_Cursor_R->_send_a_command
    _MONDelay->_DOORSTATE
    _MDONE->_PrintLINE1
    _MDONE->_PrintLINE2
    _lcd_init->_send_a_command
    _PrintLINE2->_send_a_character
    _PrintLINE2->_send_a_command
    _PrintLINE1->_send_a_character
    _PrintLINE1->_send_a_command
    _Move_Cursor_L->_send_a_command
    _LCD_Start->_send_a_character
    _LCD_Start->_send_a_command
    _LCD_Print_Hex->_send_a_character
    _ADC_Read->___lwmod
    ___lwmod->___lwdiv
    ___fltol->___xxtofl
    ___flmul->__Umul8_16
    ___flmul->___xxtofl
    ___fladd->___xxtofl
    _ADC_LCD->_send_a_character
    _ADC_LCD->_send_a_command

Critical Paths under _ISR_H in COMMON

    None.

Critical Paths under _main in BANK0

    _main->_ADC_Read
    _SETTIME_LCD->_Move_Cursor_R
    _ONStatus->___lwmod
    _PAUSED->_PrintLINE1
    _PAUSED->_PrintLINE2
    _MDONE->_PrintLINE1
    _MDONE->_PrintLINE2
    _ADC_Read->___fltol
    ___lwmod->___lwdiv
    ___fltol->___fladd
    ___flmul->___xxtofl
    ___fladd->___flmul

Critical Paths under _ISR_H in BANK0

    None.

Critical Paths under _main in BANK1

    _main->_ADC_Read

Critical Paths under _ISR_H in BANK1

    None.

Critical Paths under _main in BANK3

    None.

Critical Paths under _ISR_H in BANK3

    None.

Critical Paths under _main in BANK2

    None.

Critical Paths under _ISR_H in BANK2

    None.

Call Graph Tables:

 ---------------------------------------------------------------------------------
 (Depth) Function   	        Calls       Base Space   Used Autos Params    Refs
 ---------------------------------------------------------------------------------
 (0) _main                                                14    14      0   28047
                                              1 BANK1     14    14      0
                            _ADC_LCD
                           _ADC_Read
                          _DOORSTATE
                      _GetKeyPressed
                      _LCD_Print_Hex
                          _LCD_Start
                      _Move_Cursor_L
                      _Move_Cursor_R
                     _Move_Cursor_To
                           _ONStatus
                         _PrintLINE1
                         _PrintLINE2
                        _SETHEAT_LCD
                        _SETTIME_LCD
                             ___wmul
                           _lcd_init
                     _send_a_command
 ---------------------------------------------------------------------------------
 (1) ___wmul                                               6     2      4     398
                                              2 COMMON     6     2      4
 ---------------------------------------------------------------------------------
 (1) _SETTIME_LCD                                         21    21      0     334
                                              2 BANK0     21    21      0
                      _Move_Cursor_R
                   _send_a_character
                     _send_a_command
 ---------------------------------------------------------------------------------
 (1) _SETHEAT_LCD                                         28    28      0     405
                                              5 COMMON     4     4      0
                                              0 BANK0     24    24      0
                   _send_a_character
                     _send_a_command
 ---------------------------------------------------------------------------------
 (1) _ONStatus                                            10     7      3   11721
                                              7 BANK0     10     7      3
                          _DOORSTATE
                          _InitTimer
                             _LampON
                              _MDONE
                           _MONDelay
                      _Move_Cursor_R
                     _Move_Cursor_To
                             _PAUSED
                         _PrintLINE1
                         _PrintLINE2
                            ___lwdiv
                            ___lwmod
                           _lcd_init
                   _send_a_character
                     _send_a_command
 ---------------------------------------------------------------------------------
 (2) _PAUSED                                               2     2      0    2215
                                              3 BANK0      2     2      0
                          _DOORSTATE
                             _LampON
                         _PrintLINE1
                         _PrintLINE2
 ---------------------------------------------------------------------------------
 (2) _Move_Cursor_To                                       5     4      1     791
                                              5 COMMON     4     3      1
                                              0 BANK0      1     1      0
                     _send_a_command
 ---------------------------------------------------------------------------------
 (2) _Move_Cursor_R                                        5     5      0      99
                                              5 COMMON     3     3      0
                                              0 BANK0      2     2      0
                     _send_a_command
 ---------------------------------------------------------------------------------
 (2) _MONDelay                                             2     2      0      47
                                              5 COMMON     2     2      0
                          _DOORSTATE
 ---------------------------------------------------------------------------------
 (3) _DOORSTATE                                            3     3      0       0
                                              2 COMMON     3     3      0
 ---------------------------------------------------------------------------------
 (2) _MDONE                                                4     4      0    2317
                                              8 COMMON     1     1      0
                                              3 BANK0      3     3      0
                             _LampON
                         _PrintLINE1
                         _PrintLINE2
                           _lcd_init
 ---------------------------------------------------------------------------------
 (1) _lcd_init                                             2     2      0      31
                                              5 COMMON     2     2      0
                     _send_a_command
 ---------------------------------------------------------------------------------
 (1) _PrintLINE2                                           6     4      2    1002
                                              5 COMMON     3     1      2
                                              0 BANK0      3     3      0
                   _send_a_character
                     _send_a_command
 ---------------------------------------------------------------------------------
 (1) _PrintLINE1                                           6     4      2    1182
                                              5 COMMON     3     1      2
                                              0 BANK0      3     3      0
                   _send_a_character
                     _send_a_command
 ---------------------------------------------------------------------------------
 (3) _LampON                                               1     1      0      31
                                              2 COMMON     1     1      0
 ---------------------------------------------------------------------------------
 (2) _InitTimer                                            0     0      0       0
 ---------------------------------------------------------------------------------
 (1) _Move_Cursor_L                                        5     5      0      99
                                              5 COMMON     3     3      0
                                              0 BANK0      2     2      0
                     _send_a_command
 ---------------------------------------------------------------------------------
 (1) _LCD_Start                                           37    37      0     405
                                              5 COMMON     4     4      0
                                              0 BANK0     33    33      0
                   _send_a_character
                     _send_a_command
 ---------------------------------------------------------------------------------
 (1) _LCD_Print_Hex                                        3     3      0      93
                                              5 COMMON     3     3      0
                   _send_a_character
 ---------------------------------------------------------------------------------
 (1) _GetKeyPressed                                        4     4      0     222
                                              2 COMMON     4     4      0
 ---------------------------------------------------------------------------------
 (1) _ADC_Read                                             8     8      0   10972
                                             65 BANK0      7     7      0
                                              0 BANK1      1     1      0
                            ___fladd
                            ___flmul
                            ___fltol
                            ___lwdiv
                            ___lwmod
                           ___xxtofl
 ---------------------------------------------------------------------------------
 (2) ___xxtofl                                            14    10      4     566
                                              2 COMMON     4     0      4
                                              0 BANK0     10    10      0
 ---------------------------------------------------------------------------------
 (2) ___lwmod                                              6     2      4    1852
                                              7 COMMON     2     2      0
                                              3 BANK0      4     0      4
                            ___lwdiv (ARG)
 ---------------------------------------------------------------------------------
 (2) ___lwdiv                                              8     4      4    1321
                                              2 COMMON     5     1      4
                                              0 BANK0      3     3      0
 ---------------------------------------------------------------------------------
 (2) ___fltol                                             11     7      4     427
                                              6 COMMON     2     2      0
                                             56 BANK0      9     5      4
                            ___fladd (ARG)
                            ___flmul (ARG)
                           ___xxtofl (ARG)
 ---------------------------------------------------------------------------------
 (2) ___flmul                                             26    18      8    3353
                                             10 BANK0     26    18      8
                          __Umul8_16
                           ___xxtofl (ARG)
 ---------------------------------------------------------------------------------
 (3) __Umul8_16                                            9     7      2     980
                                              2 COMMON     4     2      2
                                              0 BANK0      5     5      0
 ---------------------------------------------------------------------------------
 (2) ___fladd                                             20    12      8    3262
                                             36 BANK0     20    12      8
                            ___flmul (ARG)
                           ___xxtofl (ARG)
 ---------------------------------------------------------------------------------
 (1) _ADC_LCD                                              5     5      0     262
                                              5 COMMON     3     3      0
                                              0 BANK0      2     2      0
                   _send_a_character
                     _send_a_command
 ---------------------------------------------------------------------------------
 (1) _send_a_command                                       3     3      0      31
                                              2 COMMON     3     3      0
 ---------------------------------------------------------------------------------
 (2) _send_a_character                                     3     3      0      31
                                              2 COMMON     3     3      0
 ---------------------------------------------------------------------------------
 Estimated maximum stack depth 3
 ---------------------------------------------------------------------------------
 (Depth) Function   	        Calls       Base Space   Used Autos Params    Refs
 ---------------------------------------------------------------------------------
 (5) _ISR_H                                                2     2      0       0
                                              0 COMMON     2     2      0
 ---------------------------------------------------------------------------------
 Estimated maximum stack depth 5
 ---------------------------------------------------------------------------------

 Call Graph Graphs:

 _main (ROOT)
   _ADC_LCD
     _send_a_character
     _send_a_command
   _ADC_Read
     ___fladd
       ___flmul (ARG)
         __Umul8_16
         ___xxtofl (ARG)
       ___xxtofl (ARG)
     ___flmul
       __Umul8_16
       ___xxtofl (ARG)
     ___fltol
       ___fladd (ARG)
         ___flmul (ARG)
           __Umul8_16
           ___xxtofl (ARG)
         ___xxtofl (ARG)
       ___flmul (ARG)
         __Umul8_16
         ___xxtofl (ARG)
       ___xxtofl (ARG)
     ___lwdiv
     ___lwmod
       ___lwdiv (ARG)
     ___xxtofl
   _DOORSTATE
   _GetKeyPressed
   _LCD_Print_Hex
     _send_a_character
   _LCD_Start
     _send_a_character
     _send_a_command
   _Move_Cursor_L
     _send_a_command
   _Move_Cursor_R
     _send_a_command
   _Move_Cursor_To
     _send_a_command
   _ONStatus
     _DOORSTATE
     _InitTimer
     _LampON
     _MDONE
       _LampON
       _PrintLINE1
         _send_a_character
         _send_a_command
       _PrintLINE2
         _send_a_character
         _send_a_command
       _lcd_init
         _send_a_command
     _MONDelay
       _DOORSTATE
     _Move_Cursor_R
       _send_a_command
     _Move_Cursor_To
       _send_a_command
     _PAUSED
       _DOORSTATE
       _LampON
       _PrintLINE1
         _send_a_character
         _send_a_command
       _PrintLINE2
         _send_a_character
         _send_a_command
     _PrintLINE1
       _send_a_character
       _send_a_command
     _PrintLINE2
       _send_a_character
       _send_a_command
     ___lwdiv
     ___lwmod
       ___lwdiv (ARG)
     _lcd_init
       _send_a_command
     _send_a_character
     _send_a_command
   _PrintLINE1
     _send_a_character
     _send_a_command
   _PrintLINE2
     _send_a_character
     _send_a_command
   _SETHEAT_LCD
     _send_a_character
     _send_a_command
   _SETTIME_LCD
     _Move_Cursor_R
       _send_a_command
     _send_a_character
     _send_a_command
   ___wmul
   _lcd_init
     _send_a_command
   _send_a_command

 _ISR_H (ROOT)

 Address spaces:
Name               Size   Autos  Total    Cost      Usage
BANK3               60      0      10       9       16.7%
BITBANK3            60      0       0       8        0.0%
SFR3                 0      0       0       4        0.0%
BITSFR3              0      0       0       4        0.0%
BANK2               60      0       0      11        0.0%
BITBANK2            60      0       0      10        0.0%
SFR2                 0      0       0       5        0.0%
BITSFR2              0      0       0       5        0.0%
BANK1               50      F      50       7      100.0%
BITBANK1            50      0       0       6        0.0%
SFR1                 0      0       0       2        0.0%
BITSFR1              0      0       0       2        0.0%
BANK0               50     48      50       5      100.0%
BITBANK0            50      0       0       4        0.0%
SFR0                 0      0       0       1        0.0%
BITSFR0              0      0       0       1        0.0%
COMMON               E      9       C       1       85.7%
BITCOMMON            E      0       0       0        0.0%
CODE                 0      0       0       0        0.0%
DATA                 0      0      BC      12        0.0%
ABS                  0      0      BC       3        0.0%
NULL                 0      0       0       0        0.0%
STACK                0      0       0       2        0.0%
EEDATA             100      0       0       0        0.0%


Microchip Technology PIC Macro Assembler V2.10 build 88905656 
Symbol Table                                                                                   Thu Mar 05 21:22:20 2020

    __end_of_Move_Cursor_L 1610      __end_of_Move_Cursor_R 1654                          pc 0002  
   __end_of_Move_Cursor_To 1698                __CFG_CP$OFF 0000                         l80 140D  
                       l92 160F                         l77 13F7                         l86 1653  
                       l96 1684                         l97 1697                         fsr 0004  
      ___wmul@multiplicand 0074        __Umul8_16@word_mpld 0022                __CFG_LVP$ON 0000  
                      l200 0B79                        l121 1431                        l210 06B3  
                      l114 08D4                        l131 0ADA                        l213 07AE  
                      l117 14D9                        l222 1454                        l225 1449  
                      l218 139A                        l226 1455                        l330 05A5  
                      l148 095F                        l308 0536                        l325 05C0  
                      l190 0B3D                        l182 0B26                        l254 1513  
                      l159 1783                        l167 1726                        l175 084A  
                      l335 0692                        l184 0B1F                        l272 13B8  
                      l264 15B0                        l248 0D77                        l432 1462  
                      l193 0B62                        l274 13BB                        l434 147A  
                      l195 0B5B                        l187 0BAB                        l259 07FB  
                      l267 15CA                        l188 0B44                        l269 15CB  
                      l704 16DD                        l625 17EA                        l618 17FF  
                      l714 154F                        l731 0E59                        l299 0403  
                      l628 17FF                        l725 0DDB                        l821 03AD  
                      l750 0F71                        l729 0E82                        l833 03A1  
                      l746 0F4D                        l738 0FFF                        l827 0319  
                      l756 0F93                        l861 0A1B                        l767 0FF3  
                      l759 0FD1                        l768 0FFF                        l880 14A3  
                      l872 09E5                        l873 09F1                        l865 09C9  
                      l859 0984                        l878 1491                        _GIE 005F  
             __CFG_CPD$OFF 0000                        _Key 007A            __end_of_ADC_LCD 1784  
                      fsr0 0004                        indf 0000               __CFG_FOSC$HS 0000  
             ___flmul@aexp 0038               ___flmul@bexp 003D               ___flmul@sign 0037  
             ___flmul@temp 0042               ___flmul@prod 003E              _LCD_Print_Hex 140E  
             ___fltol@exp1 0077                       l3020 0B0C                       l3030 0B2A  
                     l3022 0B19                       l3014 0AEA                       l3006 0ADB  
                     l4000 09B2                       l3040 0B48                       l3032 0B37  
                     l3016 0AF9                       l3008 0AE9                       l2320 1395  
                     l2240 1598                       l4010 09E9                       l4002 09C0  
                     l3050 0B66                       l3042 0B55                       l3026 0B23  
                     l3018 0B06                       l2322 1398                       l2250 15C0  
                     l2242 159E                       l2234 158C                       l4020 0A13  
                     l4012 09F3                       l4004 09D0                       l3052 0B73  
                     l3036 0B41                       l2324 1399                       l2252 15C3  
                     l2244 15AA                       l2236 158F                       l2340 143D  
                     l4100 0A3F                       l4014 0A09                       l4006 09DB  
                     l3070 0B91                       l3062 0B84                       l3046 0B5F  
                     l4030 15D4                       l2318 1391                       l2254 15C8  
                     l2238 1595                       l2342 1442                       l2334 1437  
                     l2326 1432                       l4110 0A62                       l4102 0A49  
                     l4016 0A0E                       l4008 09DF                       l3064 0B89  
                     l3056 0B7D                       l4040 15F6                       l4032 15E0  
                     l4024 15CF                       l3400 14A8                       l2248 15B4  
                     l2344 144A                       l2336 1438                       l2328 1435  
                     l4200 0BB1                       l4120 0900                       l4112 0A6B  
                     l4104 0A4D                       l4018 0A12                       l3058 0B82  
                     l3074 0B93                       l4050 0875                       l4042 15FC  
                     l4034 15E6                       l4026 15D2                       l3410 14C4  
                     l3402 14A9                       l2346 144E                       l2338 143A  
                     l4210 0BDD                       l4202 0BBA                       l4130 0922  
                     l4122 0906                       l4114 0ACB                       l4106 0A56  
                     l3076 0BA4                       l3068 0B8B                       l4060 0897  
                     l4052 087B                       l4044 1602                       l4036 15EA  
                     l4028 15D3                       l3420 16E3                       l3412 14CA  
                     l3404 14B2                       l3500 165B                       l4220 0BF0  
                     l4204 0BC2                       l4140 0941                       l4132 0928  
                     l4124 090C                       l4116 08D5                       l4108 0A5C  
                     l4300 03EE                       l4150 172A                       l3078 0BAA  
                     l4070 08B6                       l4062 089D                       l4054 0881  
                     l4046 084B                       l4038 15F0                       l3430 170D  
                     l3422 16E4                       l3414 14D0                       l3406 14B8  
                     l3510 167B                       l3502 165C                       l4206 0BC7  
                     l4222 0BF7                       l4142 094A                       l4134 092E  
                     l4126 0915                       l4118 0900                       l3190 1470  
                     l3182 1456                       l4310 0424                       l4302 03FD  
                     l4152 1730                       l4160 1742                       l3600 169C  
                     l4080 1412                       l4072 08BF                       l4064 08A3  
                     l4056 088A                       l4048 0875                       l3432 1713  
                     l3424 16F2                       l3416 16DF                       l3440 0807  
                     l3408 14BE                       l3512 168A                       l3504 1668  
                     l3520 14E0                       l4240 0C36                       l4224 0BFD  
                     l4216 0BE0                       l4208 0BD7                       l4144 0950  
                     l4136 0937                       l4128 0919                       l3192 1476  
                     l3184 1458                       l4400 0556                       l4320 044A  
                     l4312 042A                       l4170 1763                       l4162 1748  
                     l4154 1733                       l3610 16B4                       l3602 16A2  
                     l4090 1428                       l4082 1413                       l4074 08C5  
                     l4066 08AC                       l4058 088E                       l3434 1720  
                     l3426 16F9                       l3418 16E2                       l3450 0831  
                     l3442 0808                       l3514 1697                       l3506 166F  
                     l3530 1508                       l3522 14E3                       l4242 0C3B  
                     l4234 0C1E                       l4226 0C0B                       l4218 0BEA  
                     l4146 0956                       l4138 093D                       l3186 145C  
                     l4410 0576                       l4402 055F                       l4330 046D  
                     l4322 0455                       l4314 0434                       l4306 0407  
                     l3380 13F3                       l4172 1775                       l4164 174E  
                     l4156 1734                       l4148 172A                       l3700 0DF5  
                     l3460 147E                       l3612 16C5                       l3604 16A5  
                     l3620 16D9                       l4180 06B7                       l4084 1414  
                     l4076 08CB                       l4068 08B2                       l3428 1700  
                     l3452 0837                       l3444 0816                       l3436 0803  
                     l3540 07B8                       l3516 1697                       l3508 1676  
                     l3532 150F                       l3524 14E4                       l4260 0D40  
                     l4244 0C3E                       l4236 0C2A                       l4228 0C1B  
                     l4092 0A1C                       l3188 1469                       l4420 059F  
                     l4412 057E                       l4404 0564                       l4332 0477  
                     l4324 045B                       l4340 0491                       l4316 043A  
                     l4308 041E                       l3390 1408                       l3382 13F6  
                     l3374 13E4                       l4174 1782                       l4166 1752  
                     l4158 1735                       l3710 0E09                       l3702 0DF9  
                     l3470 149F                       l3462 1480                       l3614 16CB  
                     l3606 16AC                       l3630 1526                       l4190 0798  
                     l4182 06D9                       l4086 141D                       l4078 140F  
                     l3454 0844                       l3446 081D                       l3438 0806  
                     l3550 07BF                       l3542 07B9                       l3534 07AF  
                     l3526 14F2                       l3518 14DA                       l4270 0D68  
                     l4262 0D46                       l4254 0D2A                       l4246 0C45  
                     l4238 0C30                       l4094 0A33                       l4430 0633  
                     l4414 0584                       l4406 056C                       l4342 0497  
                     l4350 04B2                       l4334 047C                       l4326 0461  
                     l4318 0440                       l3392 140B                       l3384 13F9  
                     l3376 13E8                       l4168 175D                       l3800 0F81  
                     l3720 0E1D                       l3712 0E0D                       l3704 0DFD  
                     l3464 1487                       l3616 16CC                       l3608 16B0  
                     l3640 1545                       l3632 152A                       l3624 1514  
                     l4192 07A3                       l4184 0728                       l4176 0699  
                     l4088 1422                       l3456 13AC                       l3448 0824  
                     l3560 07FA                       l3552 07CF                       l3536 07B5  
                     l3480 1618                       l3528 1503                       l4256 0D34  
                     l4248 0D27                       l4264 0D4E                       l4272 0D6D  
                     l4096 0A33                       l4440 0670                       l4432 0645  
                     l4424 05A9                       l4416 058A                       l4408 0571  
                     l4360 04D5                       l4352 04B7                       l4344 049D  
                     l4336 0486                       l4328 0467                       l4280 03B5  
                     l3394 140C                       l3386 13FD                       l3378 13E9  
                     l3802 0F85                       l3730 0E5D                       l3722 0E21  
                     l3714 0E11                       l3706 0E01                       l3650 0D85  
                     l3466 148B                       l3570 17AF                       l3562 1784  
                     l3618 16D3                       l3634 152E                       l3626 151C  
                     l3642 154B                       l4186 0752                       l4178 06B0  
                     l3458 13B1                       l3554 07DF                       l3538 07B5  
                     l3490 163A                       l3482 1624                       l3474 1613  
                     l4274 0D72                       l4266 0D5E                       l4258 0D3A  
                     l4194 0BAC                       l4098 0A39                       l4442 0673  
                     l4434 064B                       l4426 05C8                       l4418 0590  
                     l4370 04F9                       l4362 04DB                       l4354 04BE  
                     l4346 04A7                       l4338 048A                       l4290 03D5  
                     l4282 03B6                       l3388 13FE                       l3820 0FCD  
                     l3812 0F98                       l3804 0F86                       l3740 0E76  
                     l3732 0E66                       l3716 0E15                       l3708 0E05  
                     l3724 0E25                       l3660 0D9C                       l3652 0D89  
                     l3468 149A                       l3900 017D                       l3572 17B0  
                     l3564 1791                       l3636 1538                       l3628 151F  
                     l4188 077C                       l3396 14A4                       l3556 07EE  
                     l3548 07BA                       l3492 1640                       l3484 162A  
                     l3476 1616                       l4268 0D63                       l4196 0BAC  
                     l4444 0682                       l4436 0650                       l4428 062A  
                     l4380 0514                       l4372 04FF                       l4364 04DD  
                     l4356 04C4                       l4348 04AB                       l4292 03DC  
                     l4284 03BB                       l4276 03AE                       l3830 0FE9  
                     l3822 0FD6                       l3814 0F9D                       l3806 0F8A  
                     l3750 0E94                       l3734 0E68                       l3742 0E7A  
                     l3726 0E26                       l3718 0E19                       l3670 0DB2  
                     l3662 0D9D                       l3654 0D8A                       l3646 0D78  
                     l3910 01F0                       l3902 018D                       l3574 17B8  
                     l3638 153E                       l3398 14A7                       l3558 07F4  
                     l3494 1646                       l3486 162E                       l3478 1617  
                     l4198 0BB0                       l4438 0660                       l4382 051A  
                     l4374 0505                       l4366 04EC                       l4358 04CE  
                     l4390 0536                       l4294 03E1                       l4286 03C0  
                     l4278 03B4                       l3832 0FED                       l3824 0FDB  
                     l3816 0FAB                       l3808 0F90                       l3760 0EBE  
                     l3752 0EAB                       l3744 0E86                       l3736 0E6C  
                     l3728 0E3D                       l3680 0DC3                       l3672 0DB3  
                     l3656 0D8F                       l3664 0D9F                       l3648 0D7F  
                     l3920 029D                       l3912 020D                       l3904 01AA  
                     l3840 004D                       l3592 17DF                       l3584 17C6  
                     l3576 17BA                       l3568 179A                       l3488 1634  
                     l3496 1657                       l4392 0542                       l4384 051E  
                     l4376 0506                       l4368 04F3                       l4296 03E2  
                     l4288 03D0                       l3834 0FEF                       l3826 0FE3  
                     l3818 0FAF                       l3770 0EE7                       l3762 0EC2  
                     l3754 0EAF                       l3746 0E8B                       l3738 0E6D  
                     l3690 0DE1                       l3682 0DC8                       l3674 0DB9  
                     l3666 0DA7                       l3658 0D94                       l3930 02E9  
                     l3922 02C5                       l3914 023A                       l3906 01BA  
                     l3850 0064                       l3842 0054                       l3594 17EF  
                     l3578 17BE                       l3586 17D8                       l3498 165A  
                     l4394 0543                       l4386 0528                       l4378 050D  
                     l4298 03EA                       l3836 0FFA                       l3828 0FE8  
                     l3780 0F55                       l3772 0F25                       l3764 0EC3  
                     l3756 0EB3                       l3692 0DE5                       l3684 0DD0  
                     l3676 0DBD                       l3668 0DAC                       l3940 02FE  
                     l3932 02EA                       l3924 02CE                       l3916 024A  
                     l3908 01D7                       l3860 0080                       l3852 0069  
                     l3844 005A                       l3596 17F4                       l4396 054A  
                     l4388 052F                       l3838 0FFE                       l3790 0F70  
                     l3782 0F5A                       l3774 0F2B                       l3766 0ECC  
                     l3758 0EBC                       l3694 0DE9                       l3686 0DD1  
                     l3678 0DBE                       l3950 0323                       l3942 0302  
                     l3934 02F3                       l3926 02DC                       l3918 0277  
                     l3870 0095                       l3862 0086                       l3854 0071  
                     l3846 005E                       l3598 1698                       l4398 0550  
                     l3792 0F75                       l3776 0F30                       l3768 0ED1  
                     l3696 0DED                       l3688 0DD3                       l3960 0361  
                     l3952 0331                       l3944 0316                       l3928 02E5  
                     l3936 02F9                       l3880 00B1                       l3872 009D  
                     l3864 008A                       l3856 0073                       l3848 005F  
                     l3794 0F78                       l3786 0F63                       l3778 0F3F  
                     l3698 0DF1                       l3970 0395                       l3962 036C  
                     l3954 0335                       l3938 02FD                       l3890 00F4  
                     l3874 009F                       l3866 008B                       l3858 007B  
                     l3796 0F7A                       l3788 0F6C                       l3972 0399  
                     l3964 037B                       l3956 034E                       l3948 031E  
                     l3892 0110                       l3884 00BA                       l3876 00A7  
                     l3868 0090                       l3980 0963                       l3798 0F7F  
                     l3974 039A                       l3966 0385                       l3958 0354  
                     l3894 013C                       l3886 00CA                       l3878 00AC  
                     l3982 0968                       l3976 03A5                       l3968 0387  
                     l3896 0158                       l3888 00D7                       l3992 0995  
                     l3984 096C                       l3898 0174                       l3994 099A  
                     l3986 097C                       l3996 09A7                       l3988 098C  
                     l3998 09AE                       STR_1 1060                       STR_2 1040  
                     STR_3 106A                       STR_4 1056                       STR_5 104C  
                     STR_6 1024                       STR_7 1015                       STR_8 1032  
                     STR_9 1006                       u2100 159E                       u2101 159D  
                     u2110 15B0                       u2111 15AF                       u2120 15B4  
                     u2121 15B3                       u2130 15C8                       u2210 1449  
                     u2131 15C7                       u2211 1448                       u2220 1454  
                     _DOOR 006D                       u2221 1453                       u5000 0FAF  
                     u5001 0FAE                       u5010 0FBE                       u5020 0FCD  
                     u5100 0069                       u4300 13B1                       u5021 0FCC  
                     u5101 0068                       u4301 13B0                       u5030 0FD6  
                     u4310 148B                       u5110 008A                       u5031 0FD5  
                     u5015 0FB9                       u4311 148A                       u5111 0089  
                     u5040 0FDB                       u5120 0090                       u4400 17A8  
                     u6000 049D                       u5041 0FDA                       u5121 008F  
                     u6001 049C                       u5050 0FE8                       u4330 149F  
                     u5130 0095                       u4410 17BE                       u6010 04B7  
                     u5051 0FE7                       u4331 149E                       u5211 019C  
                     u5131 0094                       u4411 17BD                       u6011 04B6  
                     u5060 0FED                       u5212 01A3                       u5140 00AC  
                     u4420 17C5                       u3700 0B3D                       u4260 1720  
                     u4340 1640                       u6100 056C                       u6020 04BE  
                     u5061 0FEC                       u4325 1492                       u5301 02B7  
                     u5221 01C9                       u5213 01AA                       u5205 0176  
                     u5141 00AB                       u4421 17C4                       u4405 17A3  
                     u3701 0B3C                       u4261 171F                       u4341 163F  
                     u6101 056B                       u6021 04BD                       u5070 0FFE  
                     u5302 02BE                       u5222 01D0                       u5150 00B1  
                     u4510 16B4                       u3710 0B41                       u4270 1726  
                     u4350 166F                       u6110 0590                       u6030 04DB  
                     u5071 0FFD                       u5303 02C5                       u5223 01D7  
                     u5151 00B0                       u4511 16B3                       u3711 0B40  
                     u4271 1725                       u4351 166E                       u6111 058F  
                     u6031 04DA                       u5400 0335                       u5080 005E  
                     u4440 17D7                       u3800 0B91                       u3720 0B48  
                     u4280 0844                       u4360 167B                       u6120 05A5  
                     u6040 04F9                       u5401 0334                       u5241 01FF  
                     u5161 0102                       u5081 005D                       u4441 17D6  
                     u4505 16A6                       u3801 0B90                       u3721 0B47  
                     u4281 0843                       u4361 167A                       u6121 05A4  
                     u6041 04F8                       u5410 0344                       u5330 02E9  
                     u5242 0206                       u5162 0109                       u5090 0064  
                     u4450 17DE                       u4530 16C5                       u4610 154B  
                     u3730 0B5B                       u4290 084A                       u4370 150F  
                     u6130 05A9                       u6050 0505                       u5331 02E8  
                     u5315 02C7                       u5251 022C                       u5243 020D  
                     u5235 01D9                       u5171 011E                       u5163 0110  
                     u5091 0063                       u4451 17DD                       u4435 17C7  
                     u4531 16C4                       u4611 154A                       u3731 0B5A  
                     u4291 0849                       u4371 150E                       u6131 05A8  
                     u6051 0504                       _PEIE 005E                       u4700 0DE5  
                     u4620 0D89                       u5420 0361                       u5252 0233  
                     u5172 0125                       u3820 0BAA                       u3740 0B5F  
                     u3660 0B0C                       u4380 07FA                       u6140 05C8  
                     u6060 051A                       u4701 0DE4                       u4621 0D88  
                     u5421 0360                       u5325 02DE                       u5261 0259  
                     u5253 023A                       u5181 014A                       u5173 012C  
                     u4525 16B5                       u4605 153F                       u3821 0BA9  
                     u3741 0B5E                       u3661 0B0B                       u4381 07F9  
                     u6141 05C7                       u6061 0519                       u4710 0E3D  
                     u4630 0D8F                       u5430 037B                       u5350 02FD  
                     u5270 0283                       u5262 0260                       u5182 0151  
                     u4470 17EF                       u4390 1791                       u4550 16D9  
                     u5510 09CF                       u3814 0B99                       u3750 0B66  
                     u3670 0B1F                       u3654 0AF0                       u6150 0633  
                     u6070 0542                       u4711 0E3C                       u4631 0D8E  
                     u5431 037A                       u5415 033F                       u5351 02FC  
                     u5263 0267                       u5191 0166                       u5183 0158  
                     u4471 17EE                       u4391 1790                       u4551 16D8  
                     u4535 16C1                       u5511 09CE                       u3815 0B97  
                     u3751 0B65                       u3671 0B1E                       u3655 0AEE  
                     u6151 0632                       u6071 0541                       u6207 0450  
                     u4720 0E48                       u4640 0D94                       u5440 0399  
                     u5360 0302                       u5192 016D                       u4480 17F4  
                     u4560 151C                       u3760 0B79                       u3680 0B23  
                     u5600 0853                       u6160 064B                       u6080 0556  
                     u4801 0E9D                       u4721 0E46                       u4641 0D93  
                     u5441 0398                       u5425 035D                       u5361 0301  
                     u5345 02EC                       u5281 028F                       u5193 0174  
                     u4481 17F3                       u4465 17E1                       u4545 16CD  
                     u4561 151B                       u5505 09C1                       u3761 0B78  
                     u3681 0B22                       u6161 064A                       u6217 0598  
                     u6081 0555                       u4810 0EAF                       u4802 0EA4  
                     u4730 0E49                       u4650 0DB2                       u5370 0316  
                     u5290 02AB                       u5282 0296                       u4490 16A2  
                     u5530 09DF                       u5450 0968                       u3770 0B7D  
                     u3690 0B2A                       u5610 0868                       u6090 055E  
                     u4811 0EAE                       u4803 0EAB                       u4715 0E39  
                     u4651 0DB1                       u5435 0377                       u5371 0315  
                     u5283 029D                       u5275 027E                       u4491 16A1  
                     u5531 09DE                       u5451 0967                       u3771 0B7C  
                     u3691 0B29                       u6307 161E                       u6227 05B1  
                     u6091 055D                       u4900 0F5A                       u4820 0EB3  
                     u4740 0E5D                       u4660 0DBD                       u5380 031D  
                     u4580 152E                       u5540 09E5                       u5460 096C  
                     u3780 0B82                       u5620 08A3                       u5700 08DD  
                     u3940 145C                       u4901 0F59                       u4821 0EB2  
                     u4741 0E5C                       u4661 0DBC                       u5381 031C  
                     u4581 152D                       u5541 09E4                       u5525 09D4  
                     u5461 096B                       u3781 0B81                       u5621 08A2  
                     u6317 164C                       u3941 145B                       u6237 067B  
                     u4830 0EC2                       u4750 0E6C                       u4670 0DC3  
                     u5390 0323                       u4590 1538                       u5550 09E9  
                     u5470 098C                       u3790 0B89                       u5630 08AC  
                     u5710 08F3                       u4831 0EC1                       u4751 0E6B  
                     u4671 0DC2                       u5391 0322                       u5295 02A6  
                     u4591 1537                       u4575 1520                       u5551 09E8  
                     u5471 098B                       u3791 0B88                       u5631 08AB  
                     u6407 1608                       u6327 15A4                       u6247 068A  
                     u4920 0F70                       u4680 0DC8                       u5560 09FE  
                     u5640 08CB                       u5720 092E                       u4921 0F6F  
                     u4681 0DC7                       u5641 08CA                       u6417 0885  
                     u6337 15BA                       u5721 092D                       u6257 0A45  
                     u6177 03C8                       u4930 0F75                       u4850 0EE7  
                     u4770 0E82                       u4690 0DE1                       u5570 0A0E  
                     u5490 09AD                       u5650 08D4                       u5810 0BC2  
                     u5730 0937                       u3970 1476                       u4931 0F74  
                     u4915 0F65                       u4851 0EE6                       u4771 0E81  
                     u4691 0DE0                       u4595 1534                       u5571 0A0D  
                     u5491 09AC                       u6507 06A9                       u6427 1418  
                     u5651 08D3                       u6347 07E7                       u5811 0BC1  
                     u5731 0936                       u6267 0AD3                       u3971 1475  
                     u3955 1463                       u6187 03F6                       u4940 0F7F  
                     u4780 0E86                       u5580 0A12                       u5660 1422  
                     u5820 0BF6                       u5740 0956                       u5900 03DC  
                     u6517 173B                       u4941 0F7E                       u4861 0EFE  
                     u4853 0EE3                       u4845 0EC5                       u4781 0E85  
                     u4765 0E6F                       u5581 0A11                       u5565 09F9  
                     u5485 099F                       u5805 06BE                       u6437 142C  
                     u5661 1421                       u6357 14AD                       u5821 0BF5  
                     u5741 0955                       u6277 0910                       u3965 146A  
                     u6197 040F                       u5901 03DB                       u4950 0F85  
                     u4870 0F12                       u4862 0EFF                       u4790 0E8B  
                     u5590 15FC                       u5830 0BFD                       u5750 095F  
                     u5670 0A26                       u5910 03EE                       u6527 13EE  
                     u4951 0F84                       u4871 0F13                       u4863 0F04  
                     u4791 0E8A                       u6447 0ADF                       u5591 15FB  
                     u6367 14D4                       u6287 1662                       u5831 0BFC  
                     u5751 095E                       u5911 03ED                       u5760 1730  
                     u4960 0F8A                       u4880 0F30                       u4872 0F18  
                     u4864 0F05                       u5840 0C36                       u5680 0A62  
                     u5920 0403                       u6537 1403                       u5761 172F  
                     u4961 0F89                       u4881 0F2F                       u4873 0F19  
                     u4865 0F0A                       u6457 0AFF                       u6377 0810  
                     u6297 1690                       u5841 0C35                       u5681 0A61  
                     u5921 0402                       u5770 1775                       u4970 0F90  
                     u4890 0F55                       u4866 0F0B                       u5850 0D40  
                     u5690 0A6B                       u5930 0407                       u5771 1774  
                     u4971 0F8F                       u4891 0F54                       u6467 0B12  
                     u6387 16EC                       u5851 0D3F                       u5691 0A6A  
                     u5931 0406                       u5780 1782                       u4980 0F97  
                     u5860 0D5E                       u5940 0424                       u5781 1781  
                     u4981 0F96                       u6477 0B30                       u6397 15DA  
                     u5861 0D5D                       u5941 0423                       u4990 0F9D  
                     u5790 06B7                       u5870 0D63                       u5950 045B  
                     u5775 1771                       u4991 0F9C                       u5791 06B6  
                     u6487 0B4E                       u5871 0D62                       u5951 045A  
                     u5880 0D68                       u5960 0461                       u6497 0B6C  
                     u5881 0D67                       u5961 0460                       u5890 0D72  
                     u5970 0467                       u5891 0D71                       u5971 0466  
                     u5980 046D                       u5981 046C                       u5990 0497  
                     u5991 0496                       _TIME 00D7         __size_of_DOORSTATE 0040  
             __CFG_WRT$OFF 0000                       _Temp 00EB                       _main 03AE  
                     btemp 007E           __end_of_ADC_Read 07AF              __CFG_BOREN$ON 0000  
                     start 000C         __size_of_LCD_Start 008A            ?_Move_Cursor_To 0075  
           ADC_LCD@ptrTemp 0020              ___fltol@sign1 0076            __end_of___fladd 1000  
                    ?_main 0070              __CFG_WDTE$OFF 0000            __end_of___flmul 03AE  
          __end_of___fltol 1800                      _T1CON 0010            __end_of___lwdiv 16DE  
                    _MDONE 07AF            __end_of___lwmod 1550                      i1l346 13DC  
                    _ISR_H 13CF                      _TMR1H 000F                      _TMR1L 000E  
                    _PORTB 0006                      _PORTD 0008                      _TRISB 0086  
                    _TRISC 0087                      _TRISD 0088                      _TRISE 0089  
         __end_of_MONDelay 1456              __CFG_PWRTE$ON 0000             ?_LCD_Print_Hex 0070  
    __end_of_GetKeyPressed 0BAC                      _digit 007B              _ONStatus$1030 002C  
            _ONStatus$1031 002E            ONStatus@ptrTemp 0029                      pclath 000A  
         __end_of_ONStatus 0D78                      status 0003                      wtemp0 007E  
             ?_SETHEAT_LCD 0070            __initialization 000F               __end_of_main 0696  
          ADC_Read@ADC_Var 006A                  ??_ADC_LCD 0075          __end_of_DOORSTATE 15CC  
                   ??_main 00DD                     ?_MDONE 0070                     ?_ISR_H 0070  
                   MDONE@i 0078          __end_of_LCD_Start 08D5               ?_SETTIME_LCD 0070  
                   _ADCON0 001F                     _ADCON1 009F                     _ADRESH 001E  
                   _ADRESL 009E                     i1l3370 13D7                     i1l3372 13DB  
                   i1l3366 13CF                     i1l3368 13D5                     _PAUSED 14DA  
                   u425_20 13D5                     u425_21 13D4                     _TMR1IE 0460  
                   _TMR1IF 0060                     _TMR1ON 0080                     _STATEF 006E  
                   _TRISB4 0434                     _TRISE1 0449                     _TRISE2 044A  
       __size_of_InitTimer 000A           __end_of___xxtofl 0A1C                     _LampON 13AB  
           _send_a_command 13E3           __end_of_lcd_init 14DA                  ??___fladd 004C  
                   ___wmul 1456                 _PrintLINE1 16DE                 _PrintLINE2 0802  
                ??___flmul 0032                  ??___fltol 005C                  ??___lwdiv 0076  
                ??___lwmod 0077               __pdataCOMMON 0079            ??_LCD_Print_Hex 0075  
       __size_of__Umul8_16 0029                  ?_ADC_Read 0070                     saved_w 007E  
             ___xxtofl@arg 0026               ___xxtofl@exp 0025               ___xxtofl@val 0072  
  __end_of__initialization 0049     __end_of_send_a_command 13F8          ?_send_a_character 0070  
             ONStatus@Time 0027                 ___fltol@f1 0058              __end_of_MDONE 07FC  
            __end_of_ISR_H 13E3         ??_send_a_character 0072           ADC_LCD@firsttime 0079  
                ?_MONDelay 0070             __pcstackCOMMON 0070               __pidataBANK1 1550  
             __pidataBANK3 139B                  ?_ONStatus 0027          __end_of_InitTimer 139B  
                  ??_MDONE 0023                    ??_ISR_H 0070                 ??_ADC_Read 0061  
               __pbssBANK0 0068                 __pbssBANK1 00EB                    ?_PAUSED 0070  
          ?_send_a_command 0070                    ?_LampON 0070            PrintLINE1@place 0077  
          PrintLINE2@place 0077           ??_Move_Cursor_To 0076          __end_of__Umul8_16 14A4  
                MONDelay@i 0076                 __pmaintext 03AE                 ??_MONDelay 0075  
                  ?___wmul 0072                ?_PrintLINE1 0075                ?_PrintLINE2 0075  
     __size_of_SETHEAT_LCD 008B                 __pintentry 0004                    _ADC_LCD 1727  
            LCD_Start@F891 00C0              LCD_Start@F893 00B0                 ??_ONStatus 002A  
                ?___xxtofl 0072       __size_of_SETTIME_LCD 00BF                  ?_lcd_init 0070  
   __size_of_Move_Cursor_L 0044     __size_of_Move_Cursor_R 0044                 __stringtab 1000  
                  _HeatSET 006C            __size_of_PAUSED 003A            __size_of_LampON 0011  
             ADC_Read@Temp 00DC                    ___fladd 0D78                    ___flmul 004D  
                ONStatus@i 0030                    ___fltol 1784            __size_of___wmul 0025  
                  ___lwdiv 1698                    ___lwmod 1514                    __ptext1 1456  
                  __ptext2 0A1C                    __ptext3 08D5                    __ptext4 0BAC  
                  __ptext5 14DA                    __ptext6 1654                    __ptext7 1610  
                  __ptext8 1432                    __ptext9 158C                 ??___xxtofl 0020  
                _DOORSTATE 158C                  _LCD_Start 084B             Move_Cursor_L@i 0021  
               ??_lcd_init 0075             Move_Cursor_R@i 0021       end_of_initialization 0049  
      __size_of_PrintLINE1 0049        __size_of_PrintLINE2 0049              _Move_Cursor_L 15CC  
            _Move_Cursor_R 1610     __size_of_GetKeyPressed 00D1                  _PORTBbits 0006  
                _PORTCbits 0007                  _PORTDbits 0008                  _TIMEinSec 0068  
                _PORTEbits 0009                ___fladd@grs 0057                 ?_DOORSTATE 0070  
            ___xxtofl@sign 0024                  _TRISCbits 0087                  _TRISEbits 0089  
        __size_of_ADC_Read 0119                 ?_LCD_Start 0070                ___flmul@grs 0039  
           __end_of_PAUSED 1514             __end_of_LampON 13BC             ?_Move_Cursor_L 0070  
           ?_Move_Cursor_R 0070          __size_of_MONDelay 0024                 LCD_Start@a 0020  
               LCD_Start@b 0030                 LCD_Start@i 0040             __end_of___wmul 147B  
            __pidataCOMMON 07FC  __size_of_send_a_character 0016        start_initialization 000F  
send_a_character@character 0074          __size_of_ONStatus 01CC      __end_of_LCD_Print_Hex 1432  
                _InitTimer 1391           ??_send_a_command 0072              _GetKeyPressed 0ADB  
                 ADC_LCD@i 0021                   ??_PAUSED 0023                   ??_LampON 0072  
             SETHEAT_LCD@a 0020               SETHEAT_LCD@b 0030               SETHEAT_LCD@i 0037  
             ??_PrintLINE1 0020               ??_PrintLINE2 0020                   ??___wmul 0076  
               init_fetch0 13BC                  __Umul8_16 147B                __pdataBANK1 00A0  
              __pdataBANK3 0190                   ?_ADC_LCD 0070  Move_Cursor_R@NumShiftingR 0020  
                ___fladd@a 0048                  ___fladd@b 0044                ??_DOORSTATE 0072  
                ___flmul@a 002E                  ___flmul@b 002A                __pbssCOMMON 007B  
                ___latbits 0002              __pcstackBANK0 0020              __pcstackBANK1 00DC  
               ?_InitTimer 0070          __size_of___xxtofl 00BC             ?_GetKeyPressed 0070  
              ??_LCD_Start 0075         __end_of_PrintLINE1 1727         __end_of_PrintLINE2 084B  
        __size_of_lcd_init 0036           PrintLINE1@length 0075           PrintLINE2@length 0075  
         PrintLINE1@ptrSTR 0076           PrintLINE2@ptrSTR 0076              ??_SETHEAT_LCD 0075  
          ??_Move_Cursor_L 0075            ??_Move_Cursor_R 0075           ___lwdiv@dividend 0074  
                 ?___fladd 0044                   ?___flmul 002A                   ?___fltol 0058  
               ?__Umul8_16 0072                   ?___lwdiv 0072                   ?___lwmod 0023  
                __pstrings 1000             __size_of_MDONE 004D             __size_of_ISR_H 0014  
            ??_SETTIME_LCD 0022                   _ADC_Read 0696           ___lwdiv@quotient 0021  
        interrupt_function 0004             ___wmul@product 0076               SETTIME_LCD@a 0026  
             SETTIME_LCD@i 0036                   _MONDelay 1432        __end_of_SETHEAT_LCD 0960  
          SETHEAT_LCD@F904 0190            SETHEAT_LCD@F906 00D0           __size_of_ADC_LCD 005D  
               _ADCON0bits 001F                __stringbase 1005           _send_a_character 13F8  
        ___wmul@multiplier 0072    __size_of_Move_Cursor_To 0044                   _ONStatus 0BAC  
          ??_GetKeyPressed 0072           Move_Cursor_To@L1 0020           Move_Cursor_To@L2 0075  
         LCD_Print_Hex@KEY 0077                ??_InitTimer 0072            SETTIME_LCD@F900 00A0  
      __end_of_SETTIME_LCD 0ADB  Move_Cursor_L@NumShiftingL 0020                ??__Umul8_16 0074  
         __size_of___fladd 0288           __size_of___flmul 0361           __size_of___fltol 007C  
         __size_of___lwdiv 0046           __size_of___lwmod 003C         __end_of__stringtab 1006  
                 ___xxtofl 0960            ___lwdiv@divisor 0072            ___lwdiv@counter 0020  
                 __ptext10 07AF                   __ptext11 14A4                   __ptext20 0696  
                 __ptext12 0802                   __ptext21 0960                   __ptext13 16DE  
                 __ptext30 13F8                   __ptext22 1514                   __ptext14 13AB  
                 __ptext31 13CF                   __ptext23 1698                   __ptext15 1391  
                 __ptext24 1784                   __ptext16 15CC                   __ptext25 004D  
                 __ptext17 084B                   __ptext26 147B                   __ptext18 140E  
                 __ptext27 0D78                   __ptext19 0ADB                   __ptext28 1727  
                 __ptext29 13E3             GetKeyPressed@c 0075                   _lcd_init 14A4  
            __size_of_main 02E8      send_a_command@command 0074                _SETHEAT_LCD 08D5  
              _SETTIME_LCD 0A1C                   init_ram0 13C0                   intlevel1 0000  
         ___lwmod@dividend 0025                  stringcode 1000                _TMR1Counter 006F  
   __size_of_LCD_Print_Hex 0024                LampON@LampF 0072             _Move_Cursor_To 1654  
   __Umul8_16@multiplicand 0072            ___lwmod@divisor 0023            ___lwmod@counter 0078  
                 stringdir 1000                   stringtab 1000              ___fladd@signs 0054  
             ___fladd@aexp 0055               ___fladd@bexp 0056   __end_of_send_a_character 140E  
     __Umul8_16@multiplier 0024    __size_of_send_a_command 0015          __Umul8_16@product 0020  
